(dp1
S't_finish_save'
p2
(lp3
F1496170150.6922951
aF1496170244.953794
aF1496170245.035006
aF1496170246.093251
aF1496170247.1823599
aF1496170248.1578059
aF1496170249.151299
aF1496170250.1468351
aF1496170251.0533309
aF1496170252.041728
aF1496170253.0466881
aF1496170254.04656
aF1496170255.093713
aF1496170256.0604091
as.