(lp1
(dp2
S'right_j6'
p3
F2.230974609375
sS'right_j5'
p4
F1.2522646484375
sS'right_j4'
p5
F0.91562207031249998
sS'right_j3'
p6
F1.5630634765625
sS'right_j2'
p7
F-1.1875244140625001
sS'right_j1'
p8
F-0.54397265625000002
sS'right_j0'
p9
F0.3167841796875
sa(dp10
g3
F2.1220185546875001
sg4
F1.0324169921874999
sg5
F1.4119189453125001
sg6
F0.74325878906249998
sg7
F-1.2088642578125
sg8
F-0.06456640625
sg9
F-0.29549511718749999
sa(dp11
g3
F1.7636240234375
sg4
F1.1037626953124999
sg5
F1.3527744140625
sg6
F0.34909765625
sg7
F-1.435623046875
sg8
F0.047186523437500003
sg9
F-0.47509667968750002
sa(dp12
g3
F1.6995722656250001
sg4
F1.1852177734375
sg5
F1.2961464843749999
sg6
F0.72808105468749995
sg7
F-1.2990986328125
sg8
F0.060544921874999998
sg9
F-0.2456103515625
sa(dp13
g3
F1.497400390625
sg4
F1.200478515625
sg5
F1.3965166015624999
sg6
F1.2850966796875001
sg7
F-1.242169921875
sg8
F0.0035273437500000001
sg9
F0.079625000000000001
sa(dp14
g3
F1.7685947265624999
sg4
F1.2906357421875001
sg5
F1.2899882812500001
sg6
F1.2651728515625
sg7
F-1.4452597656249999
sg8
F-0.19367089843749999
sg9
F0.0376572265625
sa(dp15
g3
F1.8428066406250001
sg4
F1.299505859375
sg5
F1.3552402343750001
sg6
F1.1168466796875001
sg7
F-1.3195634765624999
sg8
F-0.066109374999999998
sg9
F-0.32744238281249999
sa(dp16
g3
F1.8042421875000001
sg4
F1.2427744140625001
sg5
F1.5210292968750001
sg6
F1.3537656250000001
sg7
F-1.2397158203125
sg8
F0.027260742187499999
sg9
F-0.092746093749999994
sa(dp17
g3
F1.9141523437500001
sg4
F1.2178046874999999
sg5
F1.3922041015625
sg6
F1.4464082031250001
sg7
F-1.3181113281250001
sg8
F-0.12208593750000001
sg9
F0.093749023437499995
sa(dp18
g3
F1.911041015625
sg4
F1.2743417968749999
sg5
F1.1634482421875001
sg6
F1.463625
sg7
F-1.3647802734375001
sg8
F-0.29565332031250002
sg9
F0.039619140625
sa(dp19
g3
F1.5334345703125001
sg4
F1.1181972656250001
sg5
F1.20034765625
sg6
F1.4771064453125
sg7
F-1.2470693359375
sg8
F-0.21564843750000001
sg9
F-0.28775781249999999
sa(dp20
g3
F1.50173828125
sg4
F1.1194365234375001
sg5
F1.617693359375
sg6
F1.7970410156250001
sg7
F-1.1756943359375001
sg8
F-0.03570703125
sg9
F-0.0150185546875
sa(dp21
g3
F1.870810546875
sg4
F1.1359238281249999
sg5
F1.5459091796875
sg6
F1.8598525390625
sg7
F-1.2092978515624999
sg8
F-0.1099619140625
sg9
F0.2607890625
sa(dp22
g3
F1.87184375
sg4
F1.2165781250000001
sg5
F1.1755458984375
sg6
F1.784669921875
sg7
F-1.40841796875
sg8
F-0.35891699218750001
sg9
F0.25841503906250002
sa(dp23
g3
F1.7192617187499999
sg4
F0.8930947265625
sg5
F1.5086865234375
sg6
F2.0735634765625002
sg7
F-1.2289052734374999
sg8
F-0.23660351562500001
sg9
F-0.1649111328125
sa(dp24
g3
F1.8865615234374999
sg4
F1.0243730468750001
sg5
F1.6283964843750001
sg6
F2.0444716796875002
sg7
F-1.0953320312499999
sg8
F-0.1486875
sg9
F-0.012953124999999999
sa(dp25
g3
F2.2812109375
sg4
F1.1159248046875001
sg5
F1.5853906250000001
sg6
F1.9215546875
sg7
F-1.131263671875
sg8
F-0.17303125
sg9
F0.20882031249999999
sa(dp26
g3
F2.40596875
sg4
F1.3989970703125001
sg5
F1.257775390625
sg6
F1.8769697265625001
sg7
F-1.453462890625
sg8
F-0.25323632812500002
sg9
F0.1689169921875
sa(dp27
g3
F2.9619658203124999
sg4
F1.1841845703125
sg5
F1.0251455078125
sg6
F2.045916015625
sg7
F-1.4012080078125
sg8
F-0.01958203125
sg9
F0.12189453124999999
sa(dp28
g3
F2.8650175781249998
sg4
F1.179640625
sg5
F1.6936484375
sg6
F2.1441533203124998
sg7
F-1.1839150390625
sg8
F0.0040419921875000002
sg9
F0.29790624999999998
sa(dp29
g3
F3.0582685546874999
sg4
F1.1899560546875001
sg5
F1.7999707031250001
sg6
F1.9752353515625001
sg7
F-1.1681874999999999
sg8
F0.015651367187500001
sg9
F0.30605566406250001
sa(dp30
g3
F3.0588886718750001
sg4
F1.3639052734374999
sg5
F1.2428115234374999
sg6
F1.8809941406249999
sg7
F-1.5246845703125
sg8
F-0.23547167968749999
sg9
F0.29512207031249998
sa(dp31
g3
F3.1408466796874999
sg4
F1.359787109375
sg5
F1.059966796875
sg6
F2.2049716796875001
sg7
F-1.4390703124999999
sg8
F0.025408203125000001
sg9
F0.45423730468750001
sa(dp32
g3
F3.1408466796874999
sg4
F1.2724824218749999
sg5
F1.7373134765625
sg6
F2.2779443359374998
sg7
F-1.169197265625
sg8
F0.048318359375000001
sg9
F0.58612792968750005
sa(dp33
g3
F3.1481162109374998
sg4
F1.2629931640625001
sg5
F1.752974609375
sg6
F1.9883369140625
sg7
F-1.2117519531250001
sg8
F0.056744140625000002
sg9
F0.4234033203125
sa(dp34
g3
F3.1479091796874998
sg4
F1.4789033203124999
sg5
F1.3246669921875001
sg6
F1.9206884765625001
sg7
F-1.5590546875
sg8
F-0.20116406249999999
sg9
F0.36906152343749998
sa(dp35
g3
F3.6889296874999999
sg4
F1.4250126953125
sg5
F0.88921972656250003
sg6
F2.1203769531250001
sg7
F-1.2495146484374999
sg8
F-0.2821982421875
sg9
F0.77317675781249995
sa(dp36
g3
F3.5602978515624999
sg4
F1.1792275390625
sg5
F1.5633769531249999
sg6
F2.1571201171875001
sg7
F-1.1246220703125001
sg8
F-0.12012988281250001
sg9
F0.82638085937500005
sa(dp37
g3
F3.8278251953125002
sg4
F1.1355234375000001
sg5
F1.4825937499999999
sg6
F1.8098271484374999
sg7
F-1.1666083984375
sg8
F-0.14879003906249999
sg9
F0.61654980468749998
sa(dp38
g3
F3.8369277343750001
sg4
F1.2920820312500001
sg5
F1.31562890625
sg6
F1.75909765625
sg7
F-1.4392148437500001
sg8
F-0.36589550781250002
sg9
F0.63964648437500005
sa(dp39
g3
F4.3558310546875001
sg4
F1.8291894531249999
sg5
F1.2393125
sg6
F2.1065439453125001
sg7
F-1.1303964843750001
sg8
F-0.17959863281249999
sg9
F0.83597753906250005
sa(dp40
g3
F4.0522177734374996
sg4
F1.2136865234375001
sg5
F1.584783203125
sg6
F1.8551152343749999
sg7
F-1.195302734375
sg8
F-0.089322265624999994
sg9
F0.60778417968749998
sa(dp41
g3
F4.4546640625
sg4
F1.413857421875
sg5
F1.292041015625
sg6
F1.7710175781249999
sg7
F-1.3352558593749999
sg8
F-0.27347070312499999
sg9
F0.53890527343750005
sa(dp42
g3
F2.3380966796874998
sg4
F1.7456435546875
sg5
F1.6615390624999999
sg6
F1.8989785156250001
sg7
F-1.247935546875
sg8
F-0.16861328125
sg9
F0.76142675781250002
sa(dp43
g3
F2.1618750000000002
sg4
F1.6199804687499999
sg5
F1.9559345703125
sg6
F1.8894853515625001
sg7
F-1.1003759765625001
sg8
F-0.076380859374999999
sg9
F0.82937792968750002
sa(dp44
g3
F2.2681318359375
sg4
F1.1699570312500001
sg5
F1.5438427734375
sg6
F1.7592412109375
sg7
F-1.1908359374999999
sg8
F-0.046287109375000003
sg9
F0.71141894531250005
sa(dp45
g3
F2.0280273437499998
sg4
F1.2390566406250001
sg5
F1.4977900390625001
sg6
F1.766
sg7
F-1.2643671875
sg8
F-0.13327636718749999
sg9
F0.55973144531249996
sa(dp46
g3
F2.2127050781249999
sg4
F1.5869287109375001
sg5
F1.5500146484374999
sg6
F1.6186210937500001
sg7
F-1.3634902343749999
sg8
F-0.20506835937500001
sg9
F0.56282519531249997
sa(dp47
g3
F2.437330078125
sg4
F1.6160556640624999
sg5
F1.7686357421875001
sg6
F1.4145742187499999
sg7
F-1.3123447265624999
sg8
F0.025716796875
sg9
F0.59602636718750002
sa(dp48
g3
F2.4356640624999999
sg4
F1.2896025390625001
sg5
F1.525341796875
sg6
F1.3843183593749999
sg7
F-1.3129228515625
sg8
F0.069169921874999998
sg9
F0.53921484374999995
sa(dp49
g3
F2.3316533203124998
sg4
F1.3222158203125001
sg5
F1.4899912109375
sg6
F1.389470703125
sg7
F-1.3428896484374999
sg8
F-0.0182509765625
sg9
F0.42319824218750002
sa(dp50
g3
F2.5239101562499999
sg4
F1.5805253906250001
sg5
F1.6436318359375
sg6
F1.279935546875
sg7
F-1.3341005859374999
sg8
F-0.109248046875
sg9
F0.39370214843750001
sa(dp51
g3
F2.7041083984375001
sg4
F1.4815888671874999
sg5
F1.7418457031250001
sg6
F0.95010253906249997
sg7
F-1.2885771484374999
sg8
F0.089918945312499998
sg9
F0.33451660156250002
sa(dp52
g3
F3.1518466796875
sg4
F1.3723749999999999
sg5
F1.4336865234375
sg6
F1.1662851562500001
sg7
F-1.3294990234374999
sg8
F0.042053710937500002
sg9
F0.292748046875
sa(dp53
g3
F3.3615341796874998
sg4
F1.2797001953125
sg5
F1.8267734375
sg6
F0.80887695312499996
sg7
F-1.306876953125
sg8
F0.11878515625
sg9
F0.24892871093749999
sa(dp54
g3
F3.4023710937499998
sg4
F1.3364570312499999
sg5
F1.5481679687500001
sg6
F0.94837890624999999
sg7
F-1.3064443359375
sg8
F0.098337890624999993
sg9
F0.27357519531250002
sa(dp55
g3
F3.2254912109374998
sg4
F1.34615234375
sg5
F1.5294599609374999
sg6
F1.4032500000000001
sg7
F-1.321720703125
sg8
F0.0066083984375000003
sg9
F0.36875292968750001
sa(dp56
g3
F3.5855771484374999
sg4
F1.23700390625
sg5
F1.9435527343750001
sg6
F1.1956660156250001
sg7
F-1.3204208984375001
sg8
F-0.0032519531250000001
sg9
F0.23005761718750001
sa(dp57
g3
F3.5930400390625001
sg4
F0.98871289062500001
sg5
F2.1489785156250001
sg6
F1.067560546875
sg7
F-1.2771904296875001
sg8
F0.17066992187499999
sg9
F0.233974609375
sa(dp58
g3
F3.7245380859375001
sg4
F1.1674912109375
sg5
F1.749888671875
sg6
F1.2213105468750001
sg7
F-1.2763232421874999
sg8
F0.10943359375
sg9
F0.2776982421875
sa(dp59
g3
F3.7247441406249999
sg4
F1.2572216796875
sg5
F1.6100761718750001
sg6
F1.4148632812499999
sg7
F-1.3070214843750001
sg8
F-0.025943359374999999
sg9
F0.34802343749999998
sa(dp60
g3
F3.7239179687499999
sg4
F1.2140996093750001
sg5
F1.6924091796875
sg6
F1.2938408203125
sg7
F-1.330220703125
sg8
F-0.18935546875000001
sg9
F0.17046093749999999
sa(dp61
g3
F3.8745888671875002
sg4
F1.1621201171875
sg5
F1.73937890625
sg6
F0.91185253906249997
sg7
F-1.3322324218749999
sg8
F0.094639648437500001
sg9
F0.021783203125000001
sa(dp62
g3
F3.7435947265624998
sg4
F1.228947265625
sg5
F1.6691435546875
sg6
F1.1296054687499999
sg7
F-1.3060107421875
sg8
F0.10624902343750001
sg9
F0.11199609375
sa(dp63
g3
F3.6783681640624999
sg4
F1.2854716796875001
sg5
F1.7274365234375
sg6
F1.4693642578124999
sg7
F-1.3768808593749999
sg8
F-0.0306708984375
sg9
F0.23800097656249999
sa(dp64
g3
F3.6845781249999998
sg4
F1.2499921875
sg5
F1.704365234375
sg6
F1.2914042968749999
sg7
F-1.4151757812500001
sg8
F-0.093637695312500005
sg9
F0.065809570312499996
sa(dp65
g3
F3.7984267578124999
sg4
F1.2803203125
sg5
F1.6174873046875
sg6
F1.2645957031249999
sg7
F-1.4059628906249999
sg8
F0.090530273437500003
sg9
F0.064780273437499994
sa(dp66
g3
F1.8535869140625001
sg4
F1.3170517578125001
sg5
F1.362625
sg6
F1.5551767578125
sg7
F-1.528275390625
sg8
F-0.1260927734375
sg9
F0.34152734374999999
sa.