(lp1
(dp2
S'right_j6'
p3
F2.1187001953125
sS'right_j5'
p4
F1.3511103515625
sS'right_j4'
p5
F1.1288076171874999
sS'right_j3'
p6
F1.5412539062499999
sS'right_j2'
p7
F-1.3204208984375001
sS'right_j1'
p8
F-0.39126269531250002
sS'right_j0'
p9
F0.27347265625
sa(dp10
g3
F1.612953125
sg4
F1.0627187499999999
sg5
F1.6376669921875
sg6
F0.30250097656250002
sg7
F-1.60851171875
sg8
F0.092279296875
sg9
F-0.56482617187499995
sa(dp11
g3
F1.330771484375
sg4
F0.92111132812499996
sg5
F1.7208388671874999
sg6
F0.97402343749999998
sg7
F-1.3554228515625
sg8
F0.12515234375000001
sg9
F-0.1630517578125
sa(dp12
g3
F1.3311845703125
sg4
F1.1010771484374999
sg5
F1.6841718750000001
sg6
F1.1376181640625
sg7
F-1.3375566406249999
sg8
F0.1246376953125
sg9
F-0.062137695312499998
sa(dp13
g3
F1.330771484375
sg4
F1.1806728515625
sg5
F1.6835527343750001
sg6
F1.2926943359375
sg7
F-1.33669921875
sg8
F0.11303515625
sg9
F0.039310546874999998
sa(dp14
g3
F1.330978515625
sg4
F1.2448408203125001
sg5
F1.7021054687499999
sg6
F1.4941875
sg7
F-1.335111328125
sg8
F0.10871875
sg9
F0.18118261718750001
sa(dp15
g3
F2.0697421875000002
sg4
F1.5040927734375
sg5
F1.2979931640625
sg6
F1.1903603515625001
sg7
F-1.41834375
sg8
F-0.20024414062500001
sg9
F-0.096257812499999998
sa(dp16
g3
F2.0767783203125001
sg4
F1.0915878906250001
sg5
F1.3823525390625
sg6
F0.88048730468750003
sg7
F-1.4419482421875001
sg8
F0.0400986328125
sg9
F-0.3412451171875
sa(dp17
g3
F2.0765722656249999
sg4
F1.0414804687500001
sg5
F1.4628652343749999
sg6
F1.1178476562499999
sg7
F-1.34461328125
sg8
F0.078413085937500002
sg9
F-0.13944726562500001
sa(dp18
g3
F2.0763652343749999
sg4
F1.0021015625
sg5
F1.4743691406249999
sg6
F1.20138671875
sg7
F-1.2940546875000001
sg8
F0.079435546874999999
sg9
F-0.062034179687500003
sa(dp19
g3
F2.0767783203125001
sg4
F1.0286982421874999
sg5
F1.4768349609375
sg6
F1.2753515625
sg7
F-1.2939101562499999
sg8
F0.074412109374999993
sg9
F0.036216796874999999
sa(dp20
g3
F2.0765722656249999
sg4
F1.1303593750000001
sg5
F1.4799208984375001
sg6
F1.3556328124999999
sg7
F-1.2934775390625
sg8
F0.0527373046875
sg9
F0.119109375
sa(dp21
g3
F2.0765722656249999
sg4
F1.1549033203125001
sg5
F1.503341796875
sg6
F1.42045703125
sg7
F-1.2926201171875
sg8
F0.048729492187500001
sg9
F0.16737402343749999
sa(dp22
g3
F2.0761591796875001
sg4
F1.2700166015625001
sg5
F1.2848623046875001
sg6
F1.4489980468749999
sg7
F-1.3381337890625
sg8
F-0.2733671875
sg9
F0.1435498046875
sa(dp23
g3
F2.0759521484375001
sg4
F1.2689843750000001
sg5
F1.2600351562500001
sg6
F1.4016708984374999
sg7
F-1.38594921875
sg8
F-0.30202148437499998
sg9
F0.061480468750000003
sa(dp24
g3
F1.8658271484375
sg4
F1.12025
sg5
F1.2157373046875
sg6
F1.1022373046875
sg7
F-1.2786337890624999
sg8
F-0.1410849609375
sg9
F-0.33928906250000002
sa(dp25
g3
F1.866033203125
sg4
F1.1037626953124999
sg5
F1.2801240234375
sg6
F1.1265917968750001
sg7
F-1.2803662109375
sg8
F-0.089630859374999997
sg9
F-0.32218750000000002
sa(dp26
g3
F1.8664462890625
sg4
F1.0792187499999999
sg5
F1.3217880859375
sg6
F1.2492646484375001
sg7
F-1.2797890624999999
sg8
F-0.061691406249999997
sg9
F-0.22509960937500001
sa(dp27
g3
F1.866859375
sg4
F1.0790126953125001
sg5
F1.4178710937500001
sg6
F1.3711171874999999
sg7
F-1.2793554687499999
sg8
F0.0081513671874999995
sg9
F-0.0872861328125
sa(dp28
g3
F1.866859375
sg4
F1.0796318359374999
sg5
F1.4817675781249999
sg6
F1.4568935546874999
sg7
F-1.2783447265625001
sg8
F0.041333007812500003
sg9
F0.011789062499999999
sa(dp29
g3
F1.8699716796875001
sg4
F1.14520703125
sg5
F1.5368583984374999
sg6
F1.5975146484375
sg7
F-1.2764677734375001
sg8
F0.041951171874999998
sg9
F0.20499902343750001
sa(dp30
g3
F1.97138671875
sg4
F1.1681103515625
sg5
F1.5629638671874999
sg6
F1.673041015625
sg7
F-1.2702783203125001
sg8
F0.02736328125
sg9
F0.37823925781250001
sa(dp31
g3
F1.970560546875
sg4
F1.52309765625
sg5
F1.1589423828125001
sg6
F1.521736328125
sg7
F-1.5264082031249999
sg8
F-0.35398339843749999
sg9
F0.14344726562499999
sa(dp32
g3
F1.830154296875
sg4
F1.2646455078125001
sg5
F1.127994140625
sg6
F1.2816503906250001
sg7
F-1.2227060546874999
sg8
F-0.31567578125000001
sg9
F-0.3994658203125
sa(dp33
g3
F1.6200029296875
sg4
F1.2563955078125
sg5
F1.3158359374999999
sg6
F1.310470703125
sg7
F-1.208431640625
sg8
F-0.14899609375
sg9
F-0.39091796875000001
sa(dp34
g3
F1.61958984375
sg4
F1.2660917968750001
sg5
F1.5084794921875
sg6
F1.5005039062500001
sg7
F-1.2072763671875
sg8
F-0.043919921874999997
sg9
F-0.2073740234375
sa(dp35
g3
F1.6197958984375
sg4
F1.2696035156250001
sg5
F1.5950605468750001
sg6
F1.5814355468750001
sg7
F-1.2029541015625
sg8
F-0.0020166015624999999
sg9
F-0.1065615234375
sa(dp36
g3
F1.6206220703125001
sg4
F1.2696035156250001
sg5
F1.623865234375
sg6
F1.6875595703124999
sg7
F-1.2028095703124999
sg8
F-0.0021201171874999998
sg9
F0.023951171875
sa(dp37
g3
F1.7341865234375
sg4
F1.2696035156250001
sg5
F1.67367578125
sg6
F1.792150390625
sg7
F-1.202232421875
sg8
F0.0043505859375000001
sg9
F0.197474609375
sa(dp38
g3
F1.8044482421875001
sg4
F1.2728964843749999
sg5
F1.682326171875
sg6
F1.8365634765625001
sg7
F-1.2117519531250001
sg8
F-0.015677734374999999
sg9
F0.32802050781249997
sa(dp39
g3
F1.8040351562500001
sg4
F1.4547470703125001
sg5
F1.3310322265625001
sg6
F1.810548828125
sg7
F-1.427123046875
sg8
F-0.34453515624999997
sg9
F0.23253417968750001
sa(dp40
g3
F1.8032089843750001
sg4
F1.4762177734374999
sg5
F1.2058994140624999
sg6
F1.6655781249999999
sg7
F-1.51475
sg8
F-0.3825283203125
sg9
F0.027662109375
sa(dp41
g3
F1.7035107421875
sg4
F1.4456572265625001
sg5
F1.1394726562499999
sg6
F1.4534472656249999
sg7
F-1.4422373046875001
sg8
F-0.37605761718750003
sg9
F-0.30703417968750002
sa(dp42
g3
F1.3427792968750001
sg4
F1.2731025390624999
sg5
F1.5234951171875
sg6
F1.5887617187500001
sg7
F-1.3467783203125001
sg8
F-0.046287109375000003
sg9
F-0.33413769531249998
sa(dp43
g3
F1.3427792968750001
sg4
F1.2737226562499999
sg5
F1.5740800781249999
sg6
F1.6703154296875
sg7
F-1.3405888671874999
sg8
F0.0046591796874999999
sg9
F-0.2459189453125
sa(dp44
g3
F1.3431923828125001
sg4
F1.3172578125000001
sg5
F1.6683300781249999
sg6
F1.7616865234375001
sg7
F-1.2549921875000001
sg8
F0.039481445312500002
sg9
F-0.1318193359375
sa(dp45
g3
F1.3436054687500001
sg4
F1.3168447265625001
sg5
F1.6917890625000001
sg6
F1.8443232421875
sg7
F-1.2431806640625001
sg8
F0.056332031249999998
sg9
F-0.0280107421875
sa(dp46
g3
F1.4445947265625001
sg4
F1.3626660156249999
sg5
F1.7136347656249999
sg6
F1.9391142578125
sg7
F-1.2338144531249999
sg8
F0.057766601562499999
sg9
F0.15509570312500001
sa(dp47
g3
F1.4448007812500001
sg4
F1.431197265625
sg5
F1.3246669921875001
sg6
F1.878548828125
sg7
F-1.4812363281250001
sg8
F-0.29524218749999998
sg9
F0.0751865234375
sa(dp48
g3
F1.5835419921875
sg4
F1.5090498046875001
sg5
F1.1956347656249999
sg6
F1.7161367187500001
sg7
F-1.5786083984374999
sg8
F-0.36066015624999997
sg9
F-0.1293427734375
sa(dp49
g3
F1.834517578125
sg4
F1.4840673828124999
sg5
F1.1605820312499999
sg6
F1.7046406249999999
sg7
F-1.5610664062499999
sg8
F-0.31875683593749998
sg9
F-0.38782421875
sa(dp50
g3
F1.668896484375
sg4
F1.2528837890625
sg5
F1.5409638671874999
sg6
F2.0096416015625
sg7
F-1.3070214843750001
sg8
F-0.10852734375
sg9
F-0.38453027343750001
sa(dp51
g3
F1.6693095703125
sg4
F1.26547265625
sg5
F1.6300498046875
sg6
F2.0464843749999999
sg7
F-1.2799326171875001
sg8
F-0.054706054687499998
sg9
F-0.29229882812500002
sa(dp52
g3
F1.6892050781250001
sg4
F1.27825390625
sg5
F1.6565947265625001
sg6
F2.0656406249999999
sg7
F-1.2741669921875001
sg8
F-0.0095166015624999992
sg9
F-0.20355957031249999
sa(dp53
g3
F1.9209951171874999
sg4
F1.282798828125
sg5
F1.7595722656249999
sg6
F2.0270566406250001
sg7
F-1.2152080078125
sg8
F0.057458007812500003
sg9
F0.080036132812499994
sa(dp54
g3
F1.9388378906249999
sg4
F1.2592880859375
sg5
F1.7595722656249999
sg6
F2.0250449218750002
sg7
F-1.2150634765624999
sg8
F0.057664062500000002
sg9
F0.1918017578125
sa(dp55
g3
F2.2253710937500002
sg4
F1.2107939453125001
sg5
F1.5348056640625001
sg6
F1.9779697265625
sg7
F-1.3034208984375
sg8
F-0.120439453125
sg9
F0.31389648437500001
sa(dp56
g3
F2.2259902343750002
sg4
F1.2149257812500001
sg5
F1.30741796875
sg6
F1.97351171875
sg7
F-1.4360566406249999
sg8
F-0.34474121093749999
sg9
F0.27130468749999997
sa(dp57
g3
F2.4755332031249999
sg4
F1.2821787109375
sg5
F1.070837890625
sg6
F2.0076201171874999
sg7
F-1.5138828124999999
sg8
F-0.4376806640625
sg9
F0.0771484375
sa(dp58
g3
F2.6160820312499999
sg4
F1.2706367187500001
sg5
F1.3572929687499999
sg6
F2.22891015625
sg7
F-1.4510175781250001
sg8
F0.040201171874999997
sg9
F-0.038114257812500003
sa(dp59
g3
F2.616701171875
sg4
F1.2159589843750001
sg5
F1.3907578125
sg6
F2.2270341796875002
sg7
F-1.3866708984375
sg8
F0.00291015625
sg9
F-0.0013115234375
sa(dp60
g3
F2.6179541015624999
sg4
F1.1924345703125001
sg5
F1.4299941406250001
sg6
F2.2251572265625001
sg7
F-1.3583017578125001
sg8
F-0.0087958984374999997
sg9
F0.023539062499999999
sa(dp61
g3
F2.7483417968750001
sg4
F1.1889228515625001
sg5
F1.5222685546875001
sg6
F2.2069931640624998
sg7
F-1.2675439453124999
sg8
F-0.024611328125000002
sg9
F0.096842773437500002
sa(dp62
g3
F2.7483417968750001
sg4
F1.187490234375
sg5
F1.5747001953124999
sg6
F2.1934394531249999
sg7
F-1.2274619140625
sg8
F-0.024406250000000001
sg9
F0.12385644531249999
sa(dp63
g3
F2.7487548828124999
sg4
F1.178814453125
sg5
F1.6586474609374999
sg6
F2.1746982421875001
sg7
F-1.1686201171874999
sg8
F-0.024406250000000001
sg9
F0.15643261718750001
sa(dp64
g3
F2.7495937499999998
sg4
F1.1763476562499999
sg5
F1.6986064453125
sg6
F2.1398222656249999
sg7
F-1.1608330078125
sg8
F-0.025332031250000001
sg9
F0.17293749999999999
sa(dp65
g3
F2.9121552734375
sg4
F1.178607421875
sg5
F1.6942685546875
sg6
F2.0601640625000002
sg7
F-1.1628544921874999
sg8
F-0.031082031249999999
sg9
F0.21387500000000001
sa(dp66
g3
F2.9127753906249998
sg4
F1.179640625
sg5
F1.6893232421875
sg6
F2.0140986328124999
sg7
F-1.1744042968749999
sg8
F-0.059227539062500001
sg9
F0.31646875000000002
sa(dp67
g3
F3.1790244140624999
sg4
F1.42026171875
sg5
F0.84462499999999996
sg6
F1.9142275390625001
sg7
F-1.5545966796874999
sg8
F-0.29883789062499999
sg9
F0.29130761718749998
sa(dp68
g3
F3.1794375000000001
sg4
F1.2050234375
sg5
F0.66584765624999998
sg6
F2.0377128906249999
sg7
F-1.4841064453124999
sg8
F-0.28209570312499999
sg9
F0.32265624999999998
sa(dp69
g3
F3.2460322265624999
sg4
F1.1462392578125
sg5
F0.74027929687500005
sg6
F2.1088447265624999
sg7
F-1.332810546875
sg8
F-0.26607421874999998
sg9
F0.28068847656250001
sa(dp70
g3
F3.2458261718750001
sg4
F1.1454130859375
sg5
F0.85423046874999997
sg6
F2.1000654296875001
sg7
F-1.3192753906250001
sg8
F-0.19572265624999999
sg9
F0.27841796875000002
sa(dp71
g3
F3.2458261718750001
sg4
F1.232458984375
sg5
F0.91092285156249997
sg6
F2.0348261718749998
sg7
F-1.3110546875
sg8
F-0.1099619140625
sg9
F0.29347558593750001
sa(dp72
g3
F3.2458261718750001
sg4
F1.27990625
sg5
F1.0646923828124999
sg6
F2.0164003906249999
sg7
F-1.3096113281249999
sg8
F-0.060359375
sg9
F0.34018261718749998
sa(dp73
g3
F3.2456064453125002
sg4
F1.2778408203125
sg5
F1.2393125
sg6
F2.0313701171875
sg7
F-1.2642236328125001
sg8
F-0.045874999999999999
sg9
F0.36895898437500002
sa(dp74
g3
F3.24416015625
sg4
F1.198619140625
sg5
F1.6030781249999999
sg6
F2.1563984375
sg7
F-1.166896484375
sg8
F-0.046595703124999999
sg9
F0.46795703124999999
sa(dp75
g3
F3.2453994140625002
sg4
F1.183978515625
sg5
F1.7210458984375001
sg6
F2.0876845703125002
sg7
F-1.1480019531250001
sg8
F-0.039405273437499999
sg9
F0.49486718750000003
sa(dp76
g3
F3.2460322265624999
sg4
F1.1841845703125
sg5
F1.7317617187500001
sg6
F1.9868935546875
sg7
F-1.1485791015625
sg8
F-0.048235351562500001
sg9
F0.4624892578125
sa(dp77
g3
F3.2470654296874999
sg4
F1.1876962890625
sg5
F1.57490625
sg6
F1.9891943359374999
sg7
F-1.205697265625
sg8
F-0.16029687500000001
sg9
F0.45887499999999998
sa(dp78
g3
F2.9864580078124998
sg4
F1.5617265625000001
sg5
F0.81699609375000004
sg6
F1.9897714843750001
sg7
F-1.758490234375
sg8
F-0.29544824218749999
sg9
F0.460740234375
sa(dp79
g3
F3.3698359375
sg4
F1.593345703125
sg5
F0.83050097656249999
sg6
F2.0889755859374999
sg7
F-1.4868398437499999
sg8
F-0.031494140625
sg9
F0.59097753906249995
sa(dp80
g3
F3.3700419921874998
sg4
F1.499134765625
sg5
F0.98317285156250001
sg6
F2.1522119140624998
sg7
F-1.4079843750000001
sg8
F-0.0010908203125
sg9
F0.6018017578125
sa(dp81
g3
F3.3700419921874998
sg4
F1.5330126953125001
sg5
F1.0859951171875
sg6
F2.1314755859374999
sg7
F-1.4043749999999999
sg8
F0.060442382812500001
sg9
F0.61963769531250001
sa(dp82
g3
F3.3700419921874998
sg4
F1.5892011718750001
sg5
F1.2300810546875001
sg6
F2.1082763671875
sg7
F-1.3997734374999999
sg8
F0.11005078124999999
sg9
F0.63180664062500003
sa(dp83
g3
F3.3702490234375002
sg4
F1.5889951171875001
sg5
F1.3741416015625001
sg6
F2.0997763671874998
sg7
F-1.3482226562499999
sg8
F0.13173242187500001
sg9
F0.64387207031250004
sa(dp84
g3
F3.3710751953125002
sg4
F1.5889951171875001
sg5
F1.4955302734375
sg6
F2.1000654296875001
sg7
F-1.3460566406250001
sg8
F0.17796386718750001
sg9
F0.65346191406249998
sa(dp85
g3
F3.37148828125
sg4
F1.5894082031250001
sg5
F1.7080703125000001
sg6
F2.1282998046874999
sg7
F-1.334677734375
sg8
F0.20333105468750001
sg9
F0.70801660156250001
sa(dp86
g3
F3.3729472656250001
sg4
F1.5701962890625001
sg5
F1.809240234375
sg6
F2.102953125
sg7
F-1.3122099609375
sg8
F0.22346874999999999
sg9
F0.70512890625000002
sa(dp87
g3
F3.3814423828125002
sg4
F1.5437548828125001
sg5
F1.82512109375
sg6
F2.061318359375
sg7
F-1.3181113281250001
sg8
F0.22357128906250001
sg9
F0.67408300781249997
sa(dp88
g3
F3.4892363281250001
sg4
F1.5402431640625001
sg5
F1.776666015625
sg6
F1.9631533203125
sg7
F-1.3776025390625
sg8
F0.22141699218749999
sg9
F0.65160351562499996
sa(dp89
g3
F3.4898554687500001
sg4
F1.6024345703125
sg5
F1.6870644531250001
sg6
F1.9558076171875001
sg7
F-1.46684375
sg8
F0.12607812500000001
sg9
F0.63850878906249997
sa(dp90
g3
F3.4898554687500001
sg4
F1.7311826171875
sg5
F1.2747919921874999
sg6
F1.9553750000000001
sg7
F-1.6244560546875
sg8
F-0.049881835937500001
sg9
F0.63098339843749995
sa(dp91
g3
F3.4892363281250001
sg4
F1.9764775390625
sg5
F0.98358593750000001
sg6
F1.9556630859374999
sg7
F-1.5067001953125001
sg8
F0.23498144531250001
sg9
F0.82752539062499997
sa(dp92
g3
F3.4900625000000001
sg4
F1.976271484375
sg5
F1.0605996093750001
sg6
F1.9110605468749999
sg7
F-1.5115917968749999
sg8
F0.27279394531250001
sg9
F0.7845224609375
sa(dp93
g3
F3.4940000000000002
sg4
F1.9574345703125
sg5
F1.2212763671875
sg6
F1.8676220703124999
sg7
F-1.533599609375
sg8
F0.34965429687499999
sg9
F0.73101074218749995
sa(dp94
g3
F3.6611708984375002
sg4
F1.9408828124999999
sg5
F1.362625
sg6
F1.8614404296875
sg7
F-1.5504277343749999
sg8
F0.36558593750000001
sg9
F0.68810351562500005
sa(dp95
g3
F3.7052871093749999
sg4
F1.9394365234374999
sg5
F1.391583984375
sg6
F1.7879814453125
sg7
F-1.557177734375
sg8
F0.36650488281249999
sg9
F0.62458984375000004
sa(dp96
g3
F3.7057011718749999
sg4
F1.939849609375
sg5
F1.4690244140625
sg6
F1.744732421875
sg7
F-1.5650908203125
sg8
F0.36568847656249998
sg9
F0.57757324218749995
sa(dp97
g3
F3.7054941406249999
sg4
F1.9412958984374999
sg5
F1.47231640625
sg6
F1.7672812499999999
sg7
F-1.6116699218749999
sg8
F0.2481279296875
sg9
F0.57210644531249999
sa(dp98
g3
F3.7054941406249999
sg4
F1.9667558593750001
sg5
F1.3864589843749999
sg6
F1.8135625
sg7
F-1.7283251953125001
sg8
F0.17046386718750001
sg9
F0.57385644531250002
sa(dp99
g3
F3.7048740234375002
sg4
F2.2083330078125001
sg5
F1.0689912109374999
sg6
F1.8124169921875
sg7
F-1.8166279296875001
sg8
F0.044826171875000001
sg9
F0.58097558593749998
sa(dp100
g3
F4.2798632812499999
sg4
F1.9028212890625
sg5
F1.3800937499999999
sg6
F2.153078125
sg7
F-1.3858046875000001
sg8
F0.028797851562500001
sg9
F1.056921875
sa(dp101
g3
F4.2474570312499997
sg4
F1.8730224609374999
sg5
F1.404107421875
sg6
F2.1210898437500001
sg7
F-1.3858046875000001
sg8
F0.083030273437499996
sg9
F0.95815527343749995
sa(dp102
g3
F4.2474570312499997
sg4
F1.7142304687500001
sg5
F1.4466240234375001
sg6
F2.0595859375000001
sg7
F-1.3338212890625001
sg8
F0.083750976562499996
sg9
F0.86031542968749997
sa(dp103
g3
F4.2472500000000002
sg4
F1.6863300781249999
sg5
F1.4866992187500001
sg6
F2.024900390625
sg7
F-1.3401552734375
sg8
F0.13614453125000001
sg9
F0.7961708984375
sa(dp104
g3
F4.2478574218749996
sg4
F1.5290878906250001
sg5
F1.9478906250000001
sg6
F2.1610097656249998
sg7
F-1.2782001953125
sg8
F0.25275292968750002
sg9
F0.87186035156249997
sa(dp105
g3
F4.2470439453125
sg4
F1.52309765625
sg5
F1.9520224609375001
sg6
F2.0798974609375001
sg7
F-1.2949208984375
sg8
F0.25306152343749999
sg9
F0.7503896484375
sa(dp106
g3
F4.2391933593750002
sg4
F1.5237167968750001
sg5
F1.8997978515625
sg6
F1.9995537109374999
sg7
F-1.3307890625000001
sg8
F0.25316406250000001
sg9
F0.65233007812499999
sa(dp107
g3
F3.9825498046874999
sg4
F1.7716972656250001
sg5
F1.5095126953125
sg6
F2.024322265625
sg7
F-1.590248046875
sg8
F0.050061523437499998
sg9
F0.71781249999999996
sa(dp108
g3
F3.4088007812500001
sg4
F1.7723173828125001
sg5
F1.477248046875
sg6
F2.0214443359374998
sg7
F-1.6024755859374999
sg8
F0.050267578124999997
sg9
F0.68511914062500001
sa(dp109
g3
F3.1636738281249999
sg4
F1.7723173828125001
sg5
F1.4536083984374999
sg6
F2.0194228515625001
sg7
F-1.602763671875
sg8
F0.04985546875
sg9
F0.68418652343749997
sa(dp110
g3
F2.8249550781249999
sg4
F1.7721103515625001
sg5
F1.4299941406250001
sg6
F2.0197119140624999
sg7
F-1.6109482421875001
sg8
F0.050472656249999998
sg9
F0.68315820312499997
sa(dp111
g3
F2.6791904296875
sg4
F1.7710781250000001
sg5
F1.451142578125
sg6
F1.987904296875
sg7
F-1.6358076171875
sg8
F0.055612304687500003
sg9
F0.66903320312500003
sa(dp112
g3
F2.1062412109375002
sg4
F1.77852734375
sg5
F1.449708984375
sg6
F1.9866044921874999
sg7
F-1.6356630859375001
sg8
F0.056229492187500001
sg9
F0.65954687499999998
sa(dp113
g3
F1.6651650390624999
sg4
F1.7896953124999999
sg5
F1.450935546875
sg6
F1.9817138671875001
sg7
F-1.6358076171875
sg8
F0.061258789062499999
sg9
F0.6628466796875
sa(dp114
g3
F1.6293242187500001
sg4
F1.8343544921874999
sg5
F1.4688300781250001
sg6
F1.9778339843749999
sg7
F-1.6352304687500001
sg8
F0.068044921874999997
sg9
F0.66408105468750001
sa(dp115
g3
F2.3137978515625002
sg4
F1.8076806640625001
sg5
F1.97927734375
sg6
F2.0469169921875001
sg7
F-1.3826376953124999
sg8
F0.20169726562500001
sg9
F1.0110439453125
sa(dp116
g3
F2.211671875
sg4
F1.72374609375
sg5
F1.9111464843749999
sg6
F2.0434609374999999
sg7
F-1.38105859375
sg8
F0.24967187499999999
sg9
F0.93228027343749997
sa(dp117
g3
F2.1168281250000001
sg4
F1.7026621093750001
sg5
F1.902689453125
sg6
F2.0450498046874999
sg7
F-1.36953515625
sg8
F0.28923339843750001
sg9
F0.86443749999999997
sa(dp118
g3
F2.0896513671874999
sg4
F1.6801201171875
sg5
F1.89855859375
sg6
F2.0413134765624998
sg7
F-1.3693916015625001
sg8
F0.30074023437500003
sg9
F0.82669628906250003
sa(dp119
g3
F2.0010556640625001
sg4
F1.594998046875
sg5
F1.8929931640625
sg6
F2.05816015625
sg7
F-1.370970703125
sg8
F0.31790039062499997
sg9
F0.78369921875000004
sa(dp120
g3
F2.0002294921875001
sg4
F1.5489189453125001
sg5
F1.89175390625
sg6
F2.0584492187499999
sg7
F-1.3711142578125
sg8
F0.31779687499999998
sg9
F0.69914746093750002
sa(dp121
g3
F1.91664453125
sg4
F1.5270224609375
sg5
F1.891328125
sg6
F2.0616074218749998
sg7
F-1.3716923828125001
sg8
F0.31717968749999997
sg9
F0.62819824218749998
sa(dp122
g3
F1.9170576171875
sg4
F1.5255761718750001
sg5
F1.8544023437499999
sg6
F2.0572939453124999
sg7
F-1.4045283203125001
sg8
F0.27063281249999999
sg9
F0.61912304687499997
sa(dp123
g3
F1.918296875
sg4
F1.6148164062499999
sg5
F1.57819921875
sg6
F1.992216796875
sg7
F-1.6102353515625001
sg8
F0.0042480468749999997
sg9
F0.61087792968749999
sa(dp124
g3
F1.9948330078125001
sg4
F1.8378789062500001
sg5
F1.617900390625
sg6
F1.8381513671875001
sg7
F-1.6911298828125001
sg8
F0.016166015624999999
sg9
F0.67779394531250003
sa(dp125
g3
F2.4935830078125001
sg4
F1.868904296875
sg5
F1.6998330078124999
sg6
F1.6296748046875
sg7
F-1.6919873046875
sg8
F0.083338867187499999
sg9
F0.78699902343749994
sa(dp126
g3
F2.5863994140625
sg4
F1.6522197265625
sg5
F1.8212089843749999
sg6
F1.5976591796874999
sg7
F-1.67575390625
sg8
F0.27916113281249999
sg9
F0.80473144531249996
sa(dp127
g3
F2.4684707031249999
sg4
F1.5261962890625
sg5
F1.8395556640624999
sg6
F1.6438857421874999
sg7
F-1.5243955078125
sg8
F0.28019042968750002
sg9
F0.72729296875000005
sa(dp128
g3
F2.3864736328124998
sg4
F1.5144208984375001
sg5
F1.8614130859375
sg6
F1.6526572265624999
sg7
F-1.5088574218749999
sg8
F0.32221582031250001
sg9
F0.66377246093749998
sa(dp129
g3
F2.3513818359375001
sg4
F1.4716728515624999
sg5
F1.8459462890625
sg6
F1.6652900390625001
sg7
F-1.5085683593749999
sg8
F0.32262792968749998
sg9
F0.60809277343750001
sa(dp130
g3
F2.1147626953124998
sg4
F1.4599111328125001
sg5
F1.8383154296874999
sg6
F1.6849697265625001
sg7
F-1.5055458984375001
sg8
F0.32087792968750001
sg9
F0.50332519531249997
sa(dp131
g3
F2.1147626953124998
sg4
F1.4623896484375001
sg5
F1.8381093749999999
sg6
F1.6838144531250001
sg7
F-1.520650390625
sg8
F0.273611328125
sg9
F0.42876757812499999
sa(dp132
g3
F2.7113769531249998
sg4
F1.6067734375
sg5
F1.8160439453124999
sg6
F1.1224404296874999
sg7
F-1.7004609374999999
sg8
F0.20908691406249999
sg9
F0.50920410156249996
sa(dp133
g3
F2.7107578124999998
sg4
F1.5592480468750001
sg5
F1.8106865234375
sg6
F1.1251572265625001
sg7
F-1.6922763671875001
sg8
F0.25111230468750001
sg9
F0.45836035156249999
sa(dp134
g3
F2.6362226562500002
sg4
F1.430796875
sg5
F1.7441171875000001
sg6
F1.1624150390625001
sg7
F-1.6428457031249999
sg8
F0.28070507812500001
sg9
F0.43423437500000001
sa(dp135
g3
F2.6358095703125
sg4
F1.4347089843750001
sg5
F1.7521484375
sg6
F1.1665742187499999
sg7
F-1.633939453125
sg8
F0.28450683593749998
sg9
F0.40453906249999999
sa(dp136
g3
F2.4582968749999998
sg4
F1.4177822265625
sg5
F1.7453574218750001
sg6
F1.224892578125
sg7
F-1.6317832031249999
sg8
F0.28995410156250001
sg9
F0.32296484375000001
sa(dp137
g3
F2.3312402343750001
sg4
F1.433056640625
sg5
F1.7898740234374999
sg6
F1.2668876953124999
sg7
F-1.60391015625
sg8
F0.2326142578125
sg9
F0.24552636718750001
sa(dp138
g3
F3.7121171875000001
sg4
F1.4301767578125
sg5
F1.8527499999999999
sg6
F0.47292578125000001
sg7
F-1.651462890625
sg8
F0.161626953125
sg9
F0.098598632812500003
sa(dp139
g3
F3.643986328125
sg4
F1.4545400390625001
sg5
F1.7161005859375
sg6
F0.54300195312499999
sg7
F-1.6194306640625
sg8
F0.15484765624999999
sg9
F0.1193154296875
sa(dp140
g3
F3.6421142578125001
sg4
F1.3882548828125001
sg5
F1.6022646484375
sg6
F0.73752929687500002
sg7
F-1.485982421875
sg8
F0.15155468750000001
sg9
F0.20737304687499999
sa(dp141
g3
F3.5447656250000001
sg4
F1.3822646484375001
sg5
F1.4949238281249999
sg6
F0.88249023437499996
sg7
F-1.427556640625
sg8
F0.14426171874999999
sg9
F0.25563671874999999
sa(dp142
g3
F3.463943359375
sg4
F1.3934199218750001
sg5
F1.4326669921874999
sg6
F1.0008046875000001
sg7
F-1.3745703124999999
sg8
F0.10953613281250001
sg9
F0.27821289062499999
sa(dp143
g3
F3.3789638671875002
sg4
F1.3618398437499999
sg5
F1.4293750000000001
sg6
F1.2263271484375
sg7
F-1.3524003906249999
sg8
F0.090433593749999999
sg9
F0.31152246093750002
sa(dp144
g3
F3.1974999999999998
sg4
F1.5400361328125001
sg5
F1.5901289062499999
sg6
F1.3736982421874999
sg7
F-1.5356113281249999
sg8
F-0.038787109375000003
sg9
F0.31554296874999999
sa(dp145
g3
F3.2043427734374998
sg4
F1.5695761718750001
sg5
F1.6672978515625001
sg6
F1.11813671875
sg7
F-1.6518964843749999
sg8
F-0.053580078125
sg9
F0.170048828125
sa(dp146
g3
F4.425576171875
sg4
F1.41840234375
sg5
F1.8187294921874999
sg6
F0.20354101562499999
sg7
F-1.7480048828125001
sg8
F0.12946777343749999
sg9
F-0.26127832031249998
sa(dp147
g3
F4.425576171875
sg4
F1.4198486328125
sg5
F1.810892578125
sg6
F0.240681640625
sg7
F-1.745857421875
sg8
F0.128953125
sg9
F-0.24015039062499999
sa(dp148
g3
F4.0985166015625003
sg4
F1.4396669921875
sg5
F1.8121328125
sg6
F0.88048730468750003
sg7
F-1.6066435546875
sg8
F0.2378564453125
sg9
F0.064258789062500002
sa(dp149
g3
F3.9835830078124999
sg4
F1.441939453125
sg5
F1.8247080078125
sg6
F1.01899609375
sg7
F-1.6054892578125
sg8
F0.26385351562499998
sg9
F0.1189033203125
sa(dp150
g3
F3.9697294921875002
sg4
F1.5509843750000001
sg5
F1.8255341796875
sg6
F1.2925507812499999
sg7
F-1.5583330078124999
sg8
F0.274228515625
sg9
F0.25501269531249998
sa(dp151
g3
F3.7386240234375001
sg4
F1.5526376953125001
sg5
F1.7904931640624999
sg6
F1.460466796875
sg7
F-1.5350341796875
sg8
F0.27638964843750002
sg9
F0.31306640624999998
sa(dp152
g3
F3.745453125
sg4
F1.5509843750000001
sg5
F1.7896669921874999
sg6
F1.5523076171875001
sg7
F-1.5570419921875001
sg8
F0.239908203125
sg9
F0.34193847656249998
sa(dp153
g3
F3.6365234375000002
sg4
F1.6978984374999999
sg5
F1.5364453124999999
sg6
F1.4297783203125001
sg7
F-1.6816376953125001
sg8
F-0.060771484374999997
sg9
F0.1337548828125
sa(dp154
g3
F4.2005644531249997
sg4
F1.4506152343750001
sg5
F1.9520224609375001
sg6
F0.19019531249999999
sg7
F-1.8684404296874999
sg8
F0.13193750000000001
sg9
F-0.44222363281249999
sa(dp155
g3
F4.1297216796875
sg4
F1.4586718750000001
sg5
F1.9549013671875
sg6
F0.31597265624999998
sg7
F-1.8657158203124999
sg8
F0.15689941406249999
sg9
F-0.3987451171875
sa(dp156
g3
F3.9021015625
sg4
F1.5418955078125001
sg5
F1.929931640625
sg6
F0.73352246093749995
sg7
F-1.76825390625
sg8
F0.25173046874999999
sg9
F-0.20994628906250001
sa(dp157
g3
F3.8992099609375002
sg4
F1.5633789062500001
sg5
F1.8871962890625
sg6
F0.92231054687500003
sg7
F-1.6710078125000001
sg8
F0.27525781249999998
sg9
F-0.11254296875
sa(dp158
g3
F3.7336533203125
sg4
F1.6307353515625
sg5
F1.858521484375
sg6
F1.1635605468750001
sg7
F-1.670439453125
sg8
F0.30063769531250001
sg9
F-0.045015624999999997
sa(dp159
g3
F3.7330332031250002
sg4
F1.7336484375000001
sg5
F1.8570878906249999
sg6
F1.3790039062499999
sg7
F-1.6539082031250001
sg8
F0.34338281250000002
sg9
F0.048070312499999997
sa(dp160
g3
F3.6414941406249999
sg4
F1.7524726562499999
sg5
F1.8076005859374999
sg6
F1.541109375
sg7
F-1.645724609375
sg8
F0.338552734375
sg9
F0.103544921875
sa(dp161
g3
F3.4987636718749999
sg4
F1.7899013671874999
sg5
F1.7970781250000001
sg6
F1.5998154296875
sg7
F-1.6530517578124999
sg8
F0.29169726562499998
sg9
F0.110966796875
sa(dp162
g3
F3.4989707031249999
sg4
F1.7807998046875
sg5
F1.644044921875
sg6
F1.41815625
sg7
F-1.7750029296875001
sg8
F-0.060462890625000001
sg9
F-0.00831640625
sa(dp163
g3
F3.9763398437499999
sg4
F1.5206181640625001
sg5
F1.9249736328125
sg6
F0.42148339843749999
sg7
F-1.8200751953125001
sg8
F-0.0033544921875000001
sg9
F-0.42357812500000003
sa(dp164
g3
F4.0877744140625003
sg4
F1.3981708984375001
sg5
F2.0071523437500001
sg6
F0.27095507812500003
sg7
F-1.821365234375
sg8
F0.1588544921875
sg9
F-0.51517285156250003
sa(dp165
g3
F3.769455078125
sg4
F1.5524306640625001
sg5
F1.9024833984375
sg6
F0.8383837890625
sg7
F-1.74025390625
sg8
F0.28316894531249998
sg9
F-0.29240136718749998
sa(dp166
g3
F3.7796025390625001
sg4
F1.6454023437500001
sg5
F1.86306640625
sg6
F1.2250371093750001
sg7
F-1.6773330078124999
sg8
F0.3247890625
sg9
F-0.14645214843750001
sa(dp167
g3
F3.78787890625
sg4
F1.6861240234374999
sg5
F1.8117197265625
sg6
F1.407544921875
sg7
F-1.6187080078125
sg8
F0.32375976562499997
sg9
F-0.049350585937499997
sa(dp168
g3
F3.9333203124999998
sg4
F1.7934140624999999
sg5
F1.7459638671875
sg6
F1.5998154296875
sg7
F-1.5691152343749999
sg8
F0.30063769531250001
sg9
F0.080139648437500002
sa(dp169
g3
F3.9320810546875
sg4
F1.9392294921875
sg5
F1.2210693359375
sg6
F1.26559765625
sg7
F-1.7290468750000001
sg8
F-0.2823017578125
sg9
F0.036319335937500002
sa.