(lp1
(dp2
S'right_j6'
p3
F2.3812832031250002
sS'right_j5'
p4
F1.1126191406249999
sS'right_j4'
p5
F0.72025390624999996
sS'right_j3'
p6
F1.6357109375000001
sS'right_j2'
p7
F-0.96275976562499999
sS'right_j1'
p8
F-0.84355078125000005
sS'right_j0'
p9
F0.24222656249999999
sa(dp10
g3
F1.660607421875
sg4
F0.849830078125
sg5
F1.0896748046875
sg6
F0.84825488281250006
sg7
F-0.98270117187499995
sg8
F-0.284353515625
sg9
F-0.22922265624999999
sa(dp11
g3
F1.6521123046874999
sg4
F0.96664843749999996
sg5
F1.3041386718750001
sg6
F0.28256835937500002
sg7
F-1.2349599609374999
sg8
F0.058795898437500001
sg9
F-0.51228515625000004
sa(dp12
g3
F1.4435615234375001
sg4
F1.0806650390625001
sg5
F1.2268017578124999
sg6
F0.8127392578125
sg7
F-1.0871025390625
sg8
F-0.014861328125
sg9
F-0.233654296875
sa(dp13
g3
F1.2360312499999999
sg4
F1.1272734375
sg5
F1.287935546875
sg6
F1.16441796875
sg7
F-1.0884023437499999
sg8
F-0.0897333984375
sg9
F-0.041928710937500002
sa(dp14
g3
F1.3388408203125
sg4
F1.122935546875
sg5
F1.22086328125
sg6
F1.1661416015624999
sg7
F-1.2075654296875
sg8
F-0.2412216796875
sg9
F-0.033168945312500003
sa(dp15
g3
F1.8782734375000001
sg4
F0.88546484375000001
sg5
F1.22598828125
sg6
F1.0944951171874999
sg7
F-1.19040234375
sg8
F-0.11345410156250001
sg9
F-0.26189550781249998
sa(dp16
g3
F1.8463310546875
sg4
F1.0472646484374999
sg5
F1.2764443359375
sg6
F1.30401953125
sg7
F-1.0479863281249999
sg8
F-0.13687207031250001
sg9
F-0.1191357421875
sa(dp17
g3
F1.902326171875
sg4
F1.0967519531250001
sg5
F1.3096777343749999
sg6
F1.4264755859375
sg7
F-1.0794599609375
sg8
F-0.147349609375
sg9
F0.043021484375000002
sa(dp18
g3
F1.902119140625
sg4
F1.0917939453125001
sg5
F1.141318359375
sg6
F1.436375
sg7
F-1.2525468749999999
sg8
F-0.35388085937500002
sg9
F0.038692382812500002
sa(dp19
g3
F1.5680097656250001
sg4
F0.81337011718749996
sg5
F1.175751953125
sg6
F1.5283320312499999
sg7
F-1.051306640625
sg8
F-0.343505859375
sg9
F-0.25014453125000002
sa(dp20
g3
F1.568216796875
sg4
F0.87969335937500004
sg5
F1.3045517578125001
sg6
F1.7573740234374999
sg7
F-0.97432812499999999
sg8
F-0.31629296875000001
sg9
F-0.1053271484375
sa(dp21
g3
F1.6152382812499999
sg4
F0.92193749999999997
sg5
F1.3934306640625
sg6
F1.904013671875
sg7
F-1.057794921875
sg8
F-0.34956542968749998
sg9
F0.117771484375
sa(dp22
g3
F1.6146191406249999
sg4
F0.87392187499999996
sg5
F1.22065625
sg6
F1.8634531249999999
sg7
F-1.288
sg8
F-0.44990722656249998
sg9
F0.095298828124999999
sa(dp23
g3
F1.1874472656249999
sg4
F0.67167187500000003
sg5
F1.3739345703125001
sg6
F1.8936542968750001
sg7
F-1.0264648437499999
sg8
F-0.4473408203125
sg9
F-0.23169824218749999
sa(dp24
g3
F1.41789453125
sg4
F0.70627343750000005
sg5
F1.3086572265625001
sg6
F2.0025849609374999
sg7
F-0.92706347656249999
sg8
F-0.44600292968749999
sg9
F-0.10202734375
sa(dp25
g3
F1.8502695312499999
sg4
F0.77175781249999997
sg5
F1.3833730468750001
sg6
F2.0336796874999998
sg7
F-0.9484580078125
sg8
F-0.440767578125
sg9
F0.15829199218750001
sa(dp26
g3
F1.8506953125000001
sg4
F0.83706152343749995
sg5
F1.1220556640624999
sg6
F1.9733671875000001
sg7
F-1.293765625
sg8
F-0.56964746093749996
sg9
F0.139736328125
sa(dp27
g3
F1.93737890625
sg4
F0.5771767578125
sg5
F1.202400390625
sg6
F2.0316582031250001
sg7
F-1.1052851562499999
sg8
F-0.45381152343749998
sg9
F-0.24921191406250001
sa(dp28
g3
F1.9375859375
sg4
F0.73592968749999998
sg5
F1.42075
sg6
F2.081486328125
sg7
F-0.97214453125
sg8
F-0.39649804687500001
sg9
F-0.091099609375000001
sa(dp29
g3
F2.0782373046874998
sg4
F0.83644140624999996
sg5
F1.4460166015625
sg6
F2.0342480468750002
sg7
F-0.9675244140625
sg8
F-0.38037304687500001
sg9
F0.13221093749999999
sa(dp30
g3
F2.0869521484375002
sg4
F0.98561425781250001
sg5
F1.1265615234374999
sg6
F2.0034423828125001
sg7
F-1.3467783203125001
sg8
F-0.56544140624999994
sg9
F0.19190429687499999
sa(dp31
g3
F2.9671562499999999
sg4
F1.0307646484374999
sg5
F1.02229296875
sg6
F2.1189423828125
sg7
F-1.2972216796875
sg8
F-0.29339648437499999
sg9
F0.0036396484374999999
sa(dp32
g3
F2.8710468750000002
sg4
F0.80965136718749997
sg5
F1.4472431640625001
sg6
F2.1814746093749999
sg7
F-0.99843847656249995
sg8
F-0.37462304687499998
sg9
F0.1033388671875
sa(dp33
g3
F2.6725673828124998
sg4
F0.87310839843749999
sg5
F1.4488828125
sg6
F2.0274902343750001
sg7
F-1.0128935546875
sg8
F-0.34432910156250002
sg9
F0.14798144531249999
sa(dp34
g3
F2.9067587890625002
sg4
F1.1019033203124999
sg5
F1.2095917968750001
sg6
F1.9106279296874999
sg7
F-1.3391445312500001
sg8
F-0.59398535156249999
sg9
F0.20602832031250001
sa(dp35
g3
F3.1595292968750002
sg4
F1.1924345703125001
sg5
F0.9676279296875
sg6
F2.1536552734374999
sg7
F-1.3539882812499999
sg8
F-0.19736914062499999
sg9
F0.249134765625
sa(dp36
g3
F3.1213388671875002
sg4
F0.86095996093750005
sg5
F1.4599863281250001
sg6
F2.2701474609374999
sg7
F-0.98919824218749997
sg8
F-0.40276269531249997
sg9
F0.368546875
sa(dp37
g3
F3.2001855468749998
sg4
F0.87948632812500005
sg5
F1.4848525390625
sg6
F2.0410253906250002
sg7
F-0.99786132812499995
sg8
F-0.37216015624999998
sg9
F0.3554521484375
sa(dp38
g3
F3.5254902343749999
sg4
F1.354416015625
sg5
F0.90192382812500005
sg6
F1.8220449218749999
sg7
F-1.3925722656249999
sg8
F-0.55321484374999996
sg9
F0.41897265625000002
sa(dp39
g3
F3.5252832031249999
sg4
F1.3651445312499999
sg5
F0.87224121093749996
sg6
F2.1412666015625001
sg7
F-1.31637890625
sg8
F-0.19520898437500001
sg9
F0.59396875000000005
sa(dp40
g3
F3.4481923828125001
sg4
F1.019015625
sg5
F1.6026777343750001
sg6
F2.271447265625
sg7
F-1.0732421875
sg8
F-0.21400878906250001
sg9
F0.78256152343749996
sa(dp41
g3
F3.450890625
sg4
F1.0569472656250001
sg5
F1.551447265625
sg6
F2.0574384765625
sg7
F-1.1110595703124999
sg8
F-0.29606542968749999
sg9
F0.6303662109375
sa(dp42
g3
F3.9573222656249998
sg4
F1.3090078125
sg5
F1.0675585937500001
sg6
F1.9252998046875001
sg7
F-1.2851123046874999
sg8
F-0.58946386718749999
sg9
F0.64871582031249997
sa(dp43
g3
F4.6305498046875
sg4
F1.50347265625
sg5
F1.3669501953125001
sg6
F2.2189492187500002
sg7
F-1.0453876953125001
sg8
F-0.41837890625000002
sg9
F0.98660937500000001
sa(dp44
g3
F4.6305498046875
sg4
F0.99715722656250005
sg5
F1.5934208984375
sg6
F2.1909853515625
sg7
F-1.0133271484374999
sg8
F-0.28383886718750001
sg9
F0.96444531249999998
sa(dp45
g3
F4.3539716796874997
sg4
F0.985201171875
sg5
F1.6014384765625
sg6
F2.0993437500000001
sg7
F-1.0121718749999999
sg8
F-0.343505859375
sg9
F0.68728027343749998
sa(dp46
g3
F4.7127802734374997
sg4
F1.2683642578125001
sg5
F1.2514228515625001
sg6
F1.961708984375
sg7
F-1.2124736328125001
sg8
F-0.63003613281250004
sg9
F0.73193652343750004
sa(dp47
g3
F3.1530869140625
sg4
F1.268158203125
sg5
F1.1921494140625
sg6
F1.9271669921875001
sg7
F-1.211462890625
sg8
F-0.59562597656250005
sg9
F0.80091699218750001
sa(dp48
g3
F2.2677187499999998
sg4
F1.256189453125
sg5
F1.6183134765625
sg6
F1.90947265625
sg7
F-0.97228906250000002
sg8
F-0.40204199218749997
sg9
F0.86443749999999997
sa(dp49
g3
F2.1732880859375001
sg4
F0.98232226562500002
sg5
F1.4986162109375001
sg6
F1.9007021484375
sg7
F-1.0007578125000001
sg8
F-0.26812597656249998
sg9
F0.72265527343750002
sa(dp50
g3
F2.0618535156250002
sg4
F1.0157099609375
sg5
F1.4620517578125001
sg6
F1.8894853515625001
sg7
F-1.0989326171875
sg8
F-0.35860839843749998
sg9
F0.6525361328125
sa(dp51
g3
F2.280177734375
sg4
F1.2147197265625
sg5
F1.2341865234375
sg6
F1.7001923828125001
sg7
F-1.3018330078125
sg8
F-0.53298632812500002
sg9
F0.68935156249999996
sa(dp52
g3
F2.45393359375
sg4
F1.3149853515625001
sg5
F1.4351328125
sg6
F1.3804384765625
sg7
F-1.0551953125
sg8
F-0.208251953125
sg9
F0.62819824218749998
sa(dp53
g3
F2.3848076171875001
sg4
F1.0971523437499999
sg5
F1.357912109375
sg6
F1.4894589843749999
sg7
F-1.0638583984375001
sg8
F-0.13820996093749999
sg9
F0.55530078125000004
sa(dp54
g3
F2.2758134765625
sg4
F1.1454130859375
sg5
F1.3544267578125
sg6
F1.5109716796874999
sg7
F-1.1237558593750001
sg8
F-0.21533984375000001
sg9
F0.44990234374999999
sa(dp55
g3
F2.5241171874999999
sg4
F1.3331513671874999
sg5
F1.4030751953125
sg6
F1.4508662109374999
sg7
F-1.2965087890625
sg8
F-0.4082099609375
sg9
F0.51095312500000001
sa(dp56
g3
F3.3625791015625
sg4
F1.1998583984375
sg5
F1.96853515625
sg6
F0.96356542968750003
sg7
F-1.24087109375
sg8
F0.1104619140625
sg9
F0.34132128906249998
sa(dp57
g3
F3.1703095703124999
sg4
F1.2693974609375001
sg5
F1.6446513671875
sg6
F1.15653125
sg7
F-1.2725791015625001
sg8
F0.094743164062499996
sg9
F0.35452539062499999
sa(dp58
g3
F3.0356357421875
sg4
F1.283625
sg5
F1.6323085937499999
sg6
F1.4106943359374999
sg7
F-1.3310781249999999
sg8
F0.0066083984375000003
sg9
F0.39009375000000002
sa(dp59
g3
F3.4092138671874999
sg4
F1.3147792968750001
sg5
F1.4529882812499999
sg6
F1.370259765625
sg7
F-1.4030849609375
sg8
F-0.22366308593750001
sg9
F0.37421972656250002
sa(dp60
g3
F3.8524462890625002
sg4
F1.0338632812499999
sg5
F1.93096484375
sg6
F0.91701367187500005
sg7
F-1.3456240234375001
sg8
F0.14190039062500001
sg9
F0.134474609375
sa(dp61
g3
F3.852240234375
sg4
F1.1947070312500001
sg5
F1.706017578125
sg6
F1.1333320312499999
sg7
F-1.2871337890625001
sg8
F0.1185791015625
sg9
F0.22026171875
sa(dp62
g3
F3.8518271484375002
sg4
F1.3515234375
sg5
F1.5841640625
sg6
F1.3458876953125001
sg7
F-1.3473564453125
sg8
F-0.0105458984375
sg9
F0.32647070312499998
sa(dp63
g3
F3.8516201171875002
sg4
F1.2433945312500001
sg5
F1.4250624999999999
sg6
F1.2419472656249999
sg7
F-1.4314365234374999
sg8
F-0.16779003906250001
sg9
F0.22304687500000001
sa(dp64
g3
F3.9862685546874999
sg4
F1.1567617187499999
sg5
F1.70663671875
sg6
F0.63354296875000005
sg7
F-1.3823574218750001
sg8
F0.109638671875
sg9
F-0.154697265625
sa(dp65
g3
F3.8361015625000001
sg4
F1.305703125
sg5
F1.63725390625
sg6
F0.96542382812500005
sg7
F-1.3803369140624999
sg8
F0.14395214843750001
sg9
F-0.055120117187499998
sa(dp66
g3
F3.61168359375
sg4
F1.3814384765625001
sg5
F1.623865234375
sg6
F1.3953544921875001
sg7
F-1.3907041015624999
sg8
F0.10943359375
sg9
F0.118080078125
sa(dp67
g3
F2.2793515625
sg4
F1.5782529296875001
sg5
F1.1728857421875001
sg6
F1.3900488281250001
sg7
F-1.5379130859375001
sg8
F-0.38653515625000001
sg9
F0.2476875
sa.