(lp1
(dp2
S'right_j6'
p3
F0.99380859374999997
sS'right_j5'
p4
F1.2365908203125
sS'right_j4'
p5
F1.1542294921875
sS'right_j3'
p6
F1.4041064453125001
sS'right_j2'
p7
F-1.306876953125
sS'right_j1'
p8
F-0.47712011718750003
sS'right_j0'
p9
F0.22119433593749999
sa(dp10
g3
F1.508994140625
sg4
F1.3156054687500001
sg5
F1.3568798828124999
sg6
F0.76461718749999996
sg7
F-1.4648320312500001
sg8
F-0.1401591796875
sg9
F-0.20036328125
sa(dp11
g3
F1.714291015625
sg4
F1.2557763671875
sg5
F1.5333593750000001
sg6
F0.55747558593750002
sg7
F-1.6418447265625
sg8
F-0.018559570312499999
sg9
F-0.34444140625000003
sa(dp12
g3
F1.8523476562500001
sg4
F1.2834189453125
sg5
F1.7163076171875
sg6
F0.029741210937499998
sg7
F-1.767107421875
sg8
F0.084676757812500003
sg9
F-0.75772265625000002
sa(dp13
g3
F2.4776123046874998
sg4
F1.3940390625000001
sg5
F1.4119189453125001
sg6
F-0.77250292968750001
sg7
F-1.668427734375
sg8
F0.1033740234375
sg9
F-1.0269248046874999
sa(dp14
g3
F2.7564365234374999
sg4
F1.4012695312500001
sg5
F1.4647119140625
sg6
F-1.1623056640625
sg7
F-1.7070654296875001
sg8
F0.15803125000000001
sg9
F-1.160390625
sa(dp15
g3
F2.967775390625
sg4
F1.4215009765625
sg5
F1.4240419921875
sg6
F-1.3568144531249999
sg7
F-1.7059199218750001
sg8
F0.19552929687500001
sg9
F-1.1895078125
sa(dp16
g3
F2.8295253906250002
sg4
F1.644783203125
sg5
F1.5987666015624999
sg6
F-1.3046142578125
sg7
F-1.4133085937500001
sg8
F-0.067344726562499999
sg9
F-1.1952705078125001
sa(dp17
g3
F2.9796152343750002
sg4
F1.6774345703125
sg5
F1.2247490234375
sg6
F-1.0978603515625001
sg7
F-1.3361220703125001
sg8
F0.049347656249999997
sg9
F-1.2920751953125
sa(dp18
g3
F3.092921875
sg4
F1.3670039062499999
sg5
F1.4965634765625
sg6
F-1.2612656250000001
sg7
F-1.8411806640624999
sg8
F-0.1175634765625
sg9
F-1.4203251953125
sa(dp19
g3
F3.1773720703124999
sg4
F0.89494140624999996
sg5
F1.9889736328125001
sg6
F-1.5769951171875001
sg7
F-2.3612275390624999
sg8
F-0.46367089843749998
sg9
F-1.3774443359374999
sa(dp20
g3
F3.3275263671875002
sg4
F0.81728222656250005
sg5
F2.0220253906250001
sg6
F-1.7129697265624999
sg7
F-2.3530703124999999
sg8
F-0.50084082031249999
sg9
F-1.2871357421875
sa(dp21
g3
F3.32690625
sg4
F1.2184248046874999
sg5
F2.1711210937500001
sg6
F-1.6005283203125
sg7
F-2.0549091796874999
sg8
F-0.609595703125
sg9
F-1.3581103515624999
sa(dp22
g3
F2.8102109375
sg4
F1.3504912109375
sg5
F2.0889951171874999
sg6
F-1.2988124999999999
sg7
F-2.0427099609375001
sg8
F-0.54951660156250004
sg9
F-1.51276953125
sa(dp23
g3
F2.8093847656249999
sg4
F1.2964199218750001
sg5
F2.0505458984375
sg6
F-1.294462890625
sg7
F-2.0428544921874998
sg8
F-0.48318554687499998
sg9
F-1.5487548828125
sa(dp24
g3
F2.9615527343750001
sg4
F1.1722167968749999
sg5
F1.8323378906250001
sg6
F-1.3755292968749999
sg7
F-2.0448662109375002
sg8
F-0.30396972656249999
sg9
F-1.53755078125
sa(dp25
g3
F3.2777675781250002
sg4
F1.00561328125
sg5
F1.8022421875000001
sg6
F-1.6192607421875
sg7
F-2.1648330078125002
sg8
F-0.2808603515625
sg9
F-1.478732421875
sa(dp26
g3
F3.5727304687500001
sg4
F0.9375986328125
sg5
F1.8096533203125
sg6
F-1.8039609375000001
sg7
F-2.2025146484375
sg8
F-0.36979980468750001
sg9
F-1.3500839843750001
sa(dp27
g3
F3.5105644531250002
sg4
F1.3475986328125
sg5
F1.9937246093750001
sg6
F-1.6757744140624999
sg7
F-1.8417490234375
sg8
F-0.50012011718750005
sg9
F-1.4886044921874999
sa(dp28
g3
F3.063458984375
sg4
F1.2759814453125
sg5
F1.9478906250000001
sg6
F-1.5145537109375
sg7
F-1.8657158203124999
sg8
F-0.45452539062500003
sg9
F-1.691123046875
sa(dp29
g3
F3.0582685546874999
sg4
F1.0779794921875001
sg5
F1.764310546875
sg6
F-1.6622578125
sg7
F-2.0177695312499999
sg8
F-0.36014550781249999
sg9
F-1.725146484375
sa(dp30
g3
F3.4479853515625001
sg4
F0.90958203125000003
sg5
F1.7136347656249999
sg6
F-1.919416015625
sg7
F-2.1685595703125
sg8
F-0.35326367187500002
sg9
F-1.6495029296874999
sa(dp31
g3
F3.7514570312500002
sg4
F0.84343945312500002
sg5
F1.6819130859375
sg6
F-2.0931074218750001
sg7
F-2.1512255859375
sg8
F-0.4175556640625
sg9
F-1.5363095703125
sa(dp32
g3
F3.7493916015625
sg4
F1.3469794921875
sg5
F1.9798974609375
sg6
F-1.9815244140624999
sg7
F-1.7146904296875001
sg8
F-0.49653124999999998
sg9
F-1.6483701171875
sa(dp33
g3
F3.0638720703125002
sg4
F1.356275390625
sg5
F1.7869814453124999
sg6
F-1.7580322265624999
sg7
F-1.7577685546874999
sg8
F-0.40255664062500002
sg9
F-1.922146484375
sa(dp34
g3
F3.0615869140625001
sg4
F1.1639794921875
sg5
F1.747203125
sg6
F-1.8337656250000001
sg7
F-1.8974326171875
sg8
F-0.343505859375
sg9
F-1.9583056640625001
sa(dp35
g3
F3.0619999999999998
sg4
F1.1093271484375
sg5
F1.7097226562500001
sg6
F-1.8695439453125
sg7
F-1.9548125000000001
sg8
F-0.34443261718750001
sg9
F-1.9565625
sa(dp36
g3
F3.4210400390625
sg4
F0.86075292968749995
sg5
F1.6041113281249999
sg6
F-2.1437382812500001
sg7
F-2.1808857421874999
sg8
F-0.38427734375
sg9
F-1.8553515625000001
sa(dp37
g3
F3.9786123046875002
sg4
F0.87269531249999999
sg5
F1.4973896484375
sg6
F-2.2975419921875
sg7
F-2.1523710937499998
sg8
F-0.40040136718750002
sg9
F-1.5726044921875
sa(dp38
g3
F3.8104345703125002
sg4
F1.4450380859375
sg5
F2.0414570312500002
sg6
F-2.0400048828125001
sg7
F-1.5709833984374999
sg8
F-0.54130273437499998
sg9
F-1.6380859375000001
sa(dp39
g3
F3.1445781249999998
sg4
F1.5429287109375001
sg5
F1.7974912109375001
sg6
F-1.7134111328124999
sg7
F-1.6667041015624999
sg8
F-0.40738671874999999
sg9
F-1.8985156249999999
sa(dp40
g3
F3.0343964843750002
sg4
F1.146033203125
sg5
F1.7111562499999999
sg6
F-1.8706982421875
sg7
F-1.9703056640625001
sg8
F-0.36076269531249999
sg9
F-1.9667314453125
sa(dp41
g3
F3.4448740234374999
sg4
F0.84921093749999998
sg5
F1.6547353515625001
sg6
F-2.1361767578125002
sg7
F-2.2029472656250002
sg8
F-0.36692480468749999
sg9
F-1.856484375
sa(dp42
g3
F4.2773847656250004
sg4
F0.76062890625000001
sg5
F1.4754023437499999
sg6
F-2.3000234375000002
sg7
F-2.1853251953125001
sg8
F-0.4301875
sg9
F-1.5421757812500001
sa(dp43
g3
F4.0602871093750004
sg4
F1.42542578125
sg5
F1.9867138671875
sg6
F-2.0049404296875002
sg7
F-1.6566513671875001
sg8
F-0.54818457031250001
sg9
F-1.5887412109375001
sa(dp44
g3
F3.5441328125
sg4
F1.1984130859375
sg5
F1.718373046875
sg6
F-2.0532333984375
sg7
F-1.928130859375
sg8
F-0.4969365234375
sg9
F-2.1925322265624998
sa(dp45
g3
F3.8634082031250001
sg4
F1.0777734375000001
sg5
F1.6650380859375
sg6
F-2.243708984375
sg7
F-2.01002734375
sg8
F-0.49858300781249998
sg9
F-2.26391796875
sa(dp46
g3
F4.2860605468750004
sg4
F0.81212988281249998
sg5
F1.569974609375
sg6
F-2.3314521484375001
sg7
F-2.1927783203125002
sg8
F-0.50125195312500004
sg9
F-2.0327988281249998
sa(dp47
g3
F4.3211523437499997
sg4
F0.60744042968750001
sg5
F1.6458906250000001
sg6
F-2.3218515625
sg7
F-2.2748554687500002
sg8
F-0.56666992187499998
sg9
F-1.8298691406250001
sa(dp48
g3
F4.5285019531249997
sg4
F0.68978613281250001
sg5
F1.78286328125
sg6
F-2.2020839843750002
sg7
F-2.25180078125
sg8
F-0.60795605468750002
sg9
F-1.5533798828125001
sa(dp49
g3
F4.5051982421875003
sg4
F1.4820019531249999
sg5
F2.0183076171874998
sg6
F-2.0848154296875001
sg7
F-1.74671484375
sg8
F-0.74290136718749999
sg9
F-1.7077744140625
sa(dp50
g3
F4.1109238281250002
sg4
F1.4004433593750001
sg5
F1.8673916015625001
sg6
F-2.2405058593749998
sg7
F-2.0005615234374998
sg8
F-0.69021191406250004
sg9
F-1.8187744140625
sa(dp51
g3
F3.2744492187500001
sg4
F1.4692070312500001
sg5
F1.8733818359375001
sg6
F-2.2412363281249998
sg7
F-2.0302480468750002
sg8
F-0.69000585937500003
sg9
F-1.8242158203125001
sa(dp52
g3
F2.4666113281249999
sg4
F1.43925390625
sg5
F1.8995908203125
sg6
F-2.2454501953124999
sg7
F-2.0887382812499999
sg8
F-0.68959472656249998
sg9
F-1.826068359375
sa(dp53
g3
F2.0226298828124998
sg4
F1.4683808593750001
sg5
F1.8226416015625
sg6
F-2.3030830078125
sg7
F-2.2195683593750002
sg8
F-0.63445410156250004
sg9
F-1.9078613281250001
sa(dp54
g3
F1.8463310546875
sg4
F1.3608193359375
sg5
F1.7902871093749999
sg6
F-2.30453515625
sg7
F-2.2433457031250001
sg8
F-0.63568261718749997
sg9
F-1.844154296875
sa(dp55
g3
F1.751810546875
sg4
F1.1396425781249999
sg5
F1.8737949218750001
sg6
F-2.0654599609375
sg7
F-2.4144931640624998
sg8
F-0.49858300781249998
sg9
F-1.5759931640625
sa(dp56
g3
F1.945875
sg4
F0.73077832031250001
sg5
F1.74885546875
sg6
F-2.2777539062500001
sg7
F-2.3085214843749999
sg8
F-0.63466015625000005
sg9
F-1.7217568359375
sa(dp57
g3
F1.8585712890624999
sg4
F0.84488574218750001
sg5
F1.931998046875
sg6
F-2.0843730468750001
sg7
F-2.2628271484375002
sg8
F-0.61421972656250001
sg9
F-1.53353125
sa(dp58
g3
F1.8596035156249999
sg4
F1.2898095703125001
sg5
F2.0952050781249998
sg6
F-2.0506162109375001
sg7
F-1.9588281249999999
sg8
F-0.79332519531250001
sg9
F-1.5488583984375
sa(dp59
g3
F1.9255527343750001
sg4
F1.2650595703125
sg5
F1.810892578125
sg6
F-2.4205048828125002
sg7
F-2.6505996093749999
sg8
F-0.75573925781249995
sg9
F-1.4585810546875
sa(dp60
g3
F1.9168505859375
sg4
F0.85971972656249995
sg5
F1.8352167968749999
sg6
F-2.3273740234375002
sg7
F-2.52475
sg8
F-0.74793066406249997
sg9
F-1.436880859375
sa(dp61
g3
F2.0398535156249999
sg4
F0.89288867187499998
sg5
F1.9154843749999999
sg6
F-2.1827373046875
sg7
F-2.2507988281250002
sg8
F-0.73356152343750003
sg9
F-1.3825830078125001
sa(dp62
g3
F2.0398535156249999
sg4
F1.3147792968750001
sg5
F2.2178974609375
sg6
F-2.0957246093749999
sg7
F-1.9172304687499999
sg8
F-0.78633984374999999
sg9
F-1.4103496093750001
sa(dp63
g3
F2.0413125000000001
sg4
F1.4464833984375001
sg5
F2.1597333984375
sg6
F-2.33334765625
sg7
F-2.432259765625
sg8
F-0.78131738281249996
sg9
F-1.2174921875
sa(dp64
g3
F2.1570976562499999
sg4
F1.2052294921875
sg5
F1.953455078125
sg6
F-2.4254492187499999
sg7
F-2.721189453125
sg8
F-0.64194726562500004
sg9
F-1.1729453125
sa(dp65
g3
F2.0969072265625002
sg4
F0.99695019531249995
sg5
F1.9390078125000001
sg6
F-2.2907031249999998
sg7
F-2.5085712890625
sg8
F-0.63774121093750002
sg9
F-1.2025771484375001
sa(dp66
g3
F2.0964941406249999
sg4
F0.54258886718749999
sg5
F1.8684238281250001
sg6
F-2.4747802734375002
sg7
F-2.4398486328125002
sg8
F-0.87724023437499998
sg9
F-1.3395937499999999
sa(dp67
g3
F2.0591552734374998
sg4
F0.754056640625
sg5
F2.1102978515625002
sg6
F-2.1334062500000002
sg7
F-2.3778398437499999
sg8
F-0.78069921875000003
sg9
F-1.1663662109374999
sa(dp68
g3
F2.06039453125
sg4
F1.3364570312499999
sg5
F2.3258203124999999
sg6
F-1.9144716796875001
sg7
F-2.05776953125
sg8
F-0.82311718749999996
sg9
F-1.1947558593750001
sa(dp69
g3
F2.299259765625
sg4
F1.4943828125
sg5
F2.2773398437500001
sg6
F-2.2572343749999999
sg7
F-2.3847060546874999
sg8
F-0.66423339843749996
sg9
F-1.0751953125
sa(dp70
g3
F2.2839218749999999
sg4
F1.0157099609375
sg5
F2.0521982421875
sg6
F-2.491943359375
sg7
F-2.6322822265624999
sg8
F-0.64995507812499997
sg9
F-1.03187109375
sa(dp71
g3
F2.2112587890625002
sg4
F0.8916484375
sg5
F2.0780458984374999
sg6
F-2.2365800781249998
sg7
F-2.5646962890624998
sg8
F-0.58936132812499997
sg9
F-0.99893359375000002
sa(dp72
g3
F2.3592705078125
sg4
F0.82222656250000004
sg5
F2.1568417968750002
sg6
F-2.0418906250000002
sg7
F-2.4726396484375002
sg8
F-0.67091015624999994
sg9
F-0.99831640624999995
sa(dp73
g3
F2.3592705078125
sg4
F1.42728515625
sg5
F2.4172685546874999
sg6
F-1.8513613281250001
sg7
F-2.0584921875000002
sg8
F-0.78490625000000003
sg9
F-1.0485419921875001
sa(dp74
g3
F2.584734375
sg4
F1.4016826171875001
sg5
F2.5023515624999999
sg6
F-2.2274033203124999
sg7
F-2.2734296875000002
sg8
F-0.74947460937499999
sg9
F-1.0129296875
sa(dp75
g3
F2.4774052734374998
sg4
F0.78266796875
sg5
F2.230111328125
sg6
F-2.5248330078125001
sg7
F-2.6999941406249999
sg8
F-0.47712011718750003
sg9
F-0.98987109375000004
sa(dp76
g3
F2.5293076171875
sg4
F0.88134570312500005
sg5
F2.1754589843750001
sg6
F-2.2594189453125
sg7
F-2.6052207031250001
sg8
F-0.49714257812500001
sg9
F-0.98925390624999998
sa(dp77
g3
F2.6476494140625002
sg4
F0.67949609374999997
sg5
F2.1080253906249999
sg6
F-2.2457480468750002
sg7
F-2.4457138671875001
sg8
F-0.71311523437500002
sg9
F-1.09391796875
sa(dp78
g3
F2.6565703125
sg4
F0.87598828124999994
sg5
F2.1920244140624998
sg6
F-2.0990634765624998
sg7
F-2.2989208984374998
sg8
F-0.72040917968749996
sg9
F-1.1477392578125001
sa(dp79
g3
F2.9133945312499998
sg4
F1.167078125
sg5
F2.5293349609375002
sg6
F-2.0517802734375001
sg7
F-2.0537451171874999
sg8
F-0.66392480468750004
sg9
F-1.21718359375
sa(dp80
g3
F3.3395595703124998
sg4
F0.36250683593749999
sg5
F2.566931640625
sg6
F-2.4974746093750002
sg7
F-2.30006640625
sg8
F-0.57869140625000004
sg9
F-1.1217041015625
sa(dp81
g3
F3.3393525390624998
sg4
F0.059047851562500003
sg5
F2.4361445312500001
sg6
F-2.6276826171874998
sg7
F-2.5605458984374998
sg8
F-0.54345800781249998
sg9
F-1.0730341796875
sa(dp82
g3
F3.4763769531249999
sg4
F0.2289814453125
sg5
F1.969568359375
sg6
F-2.4843818359375001
sg7
F-2.6377226562499998
sg8
F-0.49971484375000003
sg9
F-1.2275771484375
sa(dp83
g3
F3.5526416015625002
sg4
F0.41209765625
sg5
F1.9629580078125
sg6
F-2.3995429687500001
sg7
F-2.4956855468749999
sg8
F-0.90765039062499997
sg9
F-1.0715937499999999
sa(dp84
g3
F3.0124091796874999
sg4
F0.67351855468749999
sg5
F2.0433154296875
sg6
F-2.0589179687499999
sg7
F-2.4454248046874998
sg8
F-0.73181249999999998
sg9
F-1.1512382812499999
sa(dp85
g3
F3.0466357421875001
sg4
F1.1961533203125001
sg5
F2.3309970703124998
sg6
F-1.828396484375
sg7
F-2.0153232421874998
sg8
F-0.78183203125
sg9
F-1.1992841796875
sa(dp86
g3
F3.5712851562500001
sg4
F0.39935449218750002
sg5
F2.4355117187499999
sg6
F-2.2135888671875001
sg7
F-2.2954921874999998
sg8
F-0.48728222656249998
sg9
F-0.96857519531250003
sa(dp87
g3
F3.5714912109374999
sg4
F0.37136328125000001
sg5
F2.3921689453125001
sg6
F-2.2226025390625002
sg7
F-2.3290048828124998
sg8
F-0.48748828124999999
sg9
F-1.0027412109375
sa(dp88
g3
F3.5648554687499998
sg4
F0.43596972656249999
sg5
F2.0474472656249998
sg6
F-2.2119824218750002
sg7
F-2.4225146484375002
sg8
F-0.54335449218749998
sg9
F-1.1061708984375
sa(dp89
g3
F3.6475107421874999
sg4
F0.56070312499999997
sg5
F1.96151171875
sg6
F-2.1559648437500001
sg7
F-2.4117763671875001
sg8
F-0.72914355468750003
sg9
F-1.1524736328125
sa(dp90
g3
F3.644193359375
sg4
F0.68485449218750005
sg5
F1.9214619140625
sg6
F-2.1072207031249999
sg7
F-2.3703955078124999
sg8
F-0.70048339843749996
sg9
F-1.2164628906249999
sa(dp91
g3
F3.646671875
sg4
F1.1305654296875001
sg5
F2.1630517578125001
sg6
F-1.8564501953125001
sg7
F-1.8542373046875
sg8
F-0.7089091796875
sg9
F-1.2748955078124999
sa(dp92
g3
F3.7578613281250002
sg4
F1.0363291015625
sg5
F2.505462890625
sg6
F-1.8046923828125001
sg7
F-1.9353037109375
sg8
F-0.70695410156250005
sg9
F-0.90022460937500004
sa(dp93
g3
F3.82823828125
sg4
F0.90257128906249995
sg5
F2.505669921875
sg6
F-1.820537109375
sg7
F-2.1542304687499998
sg8
F-0.70038085937500005
sg9
F-0.74794628906250005
sa(dp94
g3
F3.8907275390625
sg4
F0.88916992187499999
sg5
F2.3274726562499999
sg6
F-1.76253515625
sg7
F-2.2725634765625
sg8
F-0.63044726562499998
sg9
F-0.67080957031249999
sa(dp95
g3
F3.791390625
sg4
F0.88258496093750005
sg5
F2.1663574218749999
sg6
F-1.7998916015624999
sg7
F-2.3026474609375001
sg8
F-0.54931054687500003
sg9
F-0.78048437500000001
sa(dp96
g3
F3.79118359375
sg4
F0.82263964843750004
sg5
F2.0195468750000001
sg6
F-1.8254736328125001
sg7
F-2.2994980468750001
sg8
F-0.47609765625
sg9
F-0.88662792968750004
sa(dp97
g3
F3.6448125
sg4
F0.8065654296875
sg5
F2.0383583984375
sg6
F-1.8608085937500001
sg7
F-2.1436191406249998
sg8
F-0.52107519531250002
sg9
F-1.1615224609374999
sa(dp98
g3
F3.64687890625
sg4
F1.0680771484375
sg5
F2.2156250000000002
sg6
F-1.68027734375
sg7
F-1.8939853515625
sg8
F-0.54192089843750002
sg9
F-1.0742695312499999
sa(dp99
g3
F3.6013291015625
sg4
F0.90875585937500003
sg5
F2.3077958984375
sg6
F-1.4495214843749999
sg7
F-2.1460546874999999
sg8
F-0.20383984375
sg9
F-0.728271484375
sa(dp100
g3
F3.7170878906249998
sg4
F1.0963388671875001
sg5
F1.9441728515625001
sg6
F-1.3764042968750001
sg7
F-2.1530839843749998
sg8
F-0.1774443359375
sg9
F-0.75937500000000002
sa(dp101
g3
F3.6396357421875001
sg4
F1.105609375
sg5
F1.9140380859374999
sg6
F-1.41701953125
sg7
F-2.1396123046875002
sg8
F-0.18452539062500001
sg9
F-0.91576464843750005
sa(dp102
g3
F3.6367304687500002
sg4
F1.1058154296875
sg5
F1.9373554687500001
sg6
F-1.4258710937500001
sg7
F-2.1231357421874999
sg8
F-0.2165751953125
sg9
F-0.97361816406250001
sa(dp103
g3
F4.0325800781250001
sg4
F0.87186914062499998
sg5
F2.3714345703125002
sg6
F-1.3983046875
sg7
F-1.9660019531249999
sg8
F-0.31998535156250002
sg9
F-0.86717187500000004
sa(dp104
g3
F4.0331992187500001
sg4
F0.86856445312499997
sg5
F2.1903710937500001
sg6
F-1.1376806640624999
sg7
F-2.0209179687500001
sg8
F-0.15670117187499999
sg9
F-0.61302636718750003
sa(dp105
g3
F4.1900292968750001
sg4
F0.94090429687499999
sg5
F2.1136025390625002
sg6
F-1.0896132812499999
sg7
F-2.0032861328124998
sg8
F-0.079153320312499997
sg9
F-0.61549609375000003
sa(dp106
g3
F4.1904423828124999
sg4
F0.9847880859375
sg5
F1.972046875
sg6
F-1.1539052734374999
sg7
F-2.0038642578124999
sg8
F-0.034369140625000003
sg9
F-0.69027246093750005
sa(dp107
g3
F4.2627304687500001
sg4
F1.0099384765624999
sg5
F1.8255341796875
sg6
F-1.3964189453125
sg7
F-2.0031425781249999
sg8
F-0.001501953125
sg9
F-0.87664648437500003
sa(dp108
g3
F4.5159267578125002
sg4
F1.0216875000000001
sg5
F1.7239248046875
sg6
F-1.6099580078125
sg7
F-1.8984345703125001
sg8
F-0.10051953125
sg9
F-1.0671689453125
sa(dp109
g3
F4.1720566406249997
sg4
F0.77670312500000005
sg5
F1.8723486328125001
sg6
F-1.2979462890625
sg7
F-1.6952900390625001
sg8
F-0.1315341796875
sg9
F-0.89249999999999996
sa(dp110
g3
F3.7162617187500002
sg4
F0.76310742187500002
sg5
F1.8327509765625001
sg6
F-1.2979462890625
sg7
F-1.6947216796875
sg8
F-0.10811523437499999
sg9
F-0.89661718749999997
sa(dp111
g3
F3.1966611328124999
sg4
F0.7318115234375
sg5
F1.8581083984375
sg6
F-1.2948964843749999
sg7
F-1.6944326171874999
sg8
F-0.1055498046875
sg9
F-0.8899208984375
sa(dp112
g3
F2.0199316406249999
sg4
F0.73160449218750001
sg5
F1.7983173828125001
sg6
F-1.2746025390625
sg7
F-1.6955791015624999
sg8
F-0.10780664062500001
sg9
F-0.88477539062499999
sa(dp113
g3
F1.8689384765624999
sg4
F1.197173828125
sg5
F1.7713076171875
sg6
F-0.71460937499999999
sg7
F-1.8578291015624999
sg8
F0.011541015625
sg9
F-0.60777148437499995
sa(dp114
g3
F2.1000185546874999
sg4
F1.2382304687500001
sg5
F1.608642578125
sg6
F-1.2086591796874999
sg7
F-1.8556718750000001
sg8
F0.062700195312499998
sg9
F-0.83463964843750005
sa(dp115
g3
F2.3752539062500002
sg4
F1.208935546875
sg5
F1.531306640625
sg6
F-1.6519531249999999
sg7
F-1.8055830078124999
sg8
F0.034657226562499997
sg9
F-1.052349609375
sa(dp116
g3
F2.0064531250000002
sg4
F1.1491318359375
sg5
F1.52308203125
sg6
F-1.3237529296874999
sg7
F-1.6043427734375
sg8
F-0.109248046875
sg9
F-1.0126201171875
sa(dp117
g3
F1.7654833984375
sg4
F1.0322099609374999
sg5
F1.397330078125
sg6
F-1.0757080078125001
sg7
F-1.6154052734375
sg8
F0.1482685546875
sg9
F-0.93933691406249997
sa(dp118
g3
F2.0228369140625002
sg4
F1.3781591796874999
sg5
F1.3632451171875
sg6
F-1.14753515625
sg7
F-1.6248896484374999
sg8
F0.20405078125000001
sg9
F-0.94798144531249995
sa(dp119
g3
F2.1757802734374998
sg4
F1.5098759765625001
sg5
F1.3802998046874999
sg6
F-1.565083984375
sg7
F-1.533166015625
sg8
F0.16511914062499999
sg9
F-1.1227324218750001
sa(dp120
g3
F2.1753671875
sg4
F1.4431787109375001
sg5
F1.6084365234375
sg6
F-1.4068681640625
sg7
F-1.374859375
sg8
F0.073588867187500004
sg9
F-1.1248935546875001
sa(dp121
g3
F3.0659375
sg4
F1.1911953125000001
sg5
F1.5775791015625
sg6
F-1.205041015625
sg7
F-1.3470673828124999
sg8
F0.1280341796875
sg9
F-1.2014511718750001
sa(dp122
g3
F1.7665292968749999
sg4
F1.2411220703125001
sg5
F1.334724609375
sg6
F-0.69049804687500005
sg7
F-1.3525449218750001
sg8
F-0.00037695312500000001
sg9
F-0.86007128906249997
sa(dp123
g3
F1.5110595703125
sg4
F1.0689033203125
sg5
F1.4316337890624999
sg6
F-0.57293261718749999
sg7
F-1.3882587890625
sg8
F0.19984472656249999
sg9
F-0.83247949218749995
sa(dp124
g3
F1.51188671875
sg4
F1.073861328125
sg5
F1.4252685546874999
sg6
F-0.56962109375000003
sg7
F-1.3865263671875001
sg8
F0.19471191406249999
sg9
F-0.83814550781249997
sa(dp125
g3
F1.8546328125
sg4
F1.2803203125
sg5
F1.7496826171875
sg6
F-1.0126162109375001
sg7
F-1.869740234375
sg8
F0.0452373046875
sg9
F-1.1023632812499999
sa(dp126
g3
F2.7402460937500002
sg4
F1.3339775390624999
sg5
F1.4443642578125
sg6
F-1.5472177734375001
sg7
F-1.8093095703124999
sg8
F0.10799902343749999
sg9
F-1.2282978515625
sa(dp127
g3
F2.7402460937500002
sg4
F1.7367607421875
sg5
F1.7564736328124999
sg6
F-1.4118037109374999
sg7
F-1.4609521484375001
sg8
F-0.23136132812499999
sg9
F-1.1797373046874999
sa.