(lp1
(dp2
S'right_j6'
p3
F2.5301337890625
sS'right_j5'
p4
F1.124587890625
sS'right_j4'
p5
F0.55501953125000003
sS'right_j3'
p6
F1.4837119140624999
sS'right_j2'
p7
F-0.91000878906250005
sS'right_j1'
p8
F-0.84252148437499996
sS'right_j0'
p9
F0.21954199218750001
sa(dp10
g3
F1.5854013671875
sg4
F1.0002558593749999
sg5
F1.122662109375
sg6
F0.64012988281250005
sg7
F-1.0053779296875001
sg8
F-0.17107617187499999
sg9
F-0.35330468749999999
sa(dp11
g3
F1.6566699218750001
sg4
F1.0526220703125
sg5
F1.37557421875
sg6
F0.41832519531250001
sg7
F-1.3729912109375
sg8
F0.045134765625000003
sg9
F-0.4760224609375
sa(dp12
g3
F1.4040283203124999
sg4
F1.178607421875
sg5
F1.4435507812499999
sg6
F0.80644042968749996
sg7
F-1.2939101562499999
sg8
F0.067015624999999995
sg9
F-0.25488476562500001
sa(dp13
g3
F1.2455468750000001
sg4
F1.3527626953125
sg5
F1.7088964843750001
sg6
F1.307890625
sg7
F-1.4040859375000001
sg8
F0.1541279296875
sg9
F0.057460937500000003
sa(dp14
g3
F1.4083789062500001
sg4
F1.424806640625
sg5
F1.4680039062500001
sg6
F1.3322626953125001
sg7
F-1.5452490234375
sg8
F-0.1096533203125
sg9
F0.045079101562500001
sa(dp15
g3
F1.7596865234375001
sg4
F1.1757285156249999
sg5
F1.5082734375
sg6
F1.2385087890624999
sg7
F-1.3882587890625
sg8
F-0.006126953125
sg9
F-0.27374316406249999
sa(dp16
g3
F1.7851718750000001
sg4
F1.2617539062500001
sg5
F1.5775791015625
sg6
F1.4206015624999999
sg7
F-1.3450458984375
sg8
F0.085397460937500003
sg9
F-0.0800693359375
sa(dp17
g3
F1.9406972656249999
sg4
F1.2687773437500001
sg5
F1.5712011718750001
sg6
F1.5424091796874999
sg7
F-1.3482226562499999
sg8
F0.060750976562500003
sg9
F0.16623535156249999
sa(dp18
g3
F1.9404912109375001
sg4
F1.3061162109375
sg5
F1.2214697265625001
sg6
F1.5372382812500001
sg7
F-1.4866953125
sg8
F-0.24142773437500001
sg9
F0.16107714843750001
sa(dp19
g3
F1.46468359375
sg4
F1.1798466796875
sg5
F1.4994423828125001
sg6
F1.5785654296875
sg7
F-1.3329550781249999
sg8
F-0.075557617187499995
sg9
F-0.238908203125
sa(dp20
g3
F1.465509765625
sg4
F1.1551093750000001
sg5
F1.7099296875000001
sg6
F1.8148525390625001
sg7
F-1.2472138671874999
sg8
F0.040715820312499998
sg9
F0.024362304687499999
sa(dp21
g3
F1.6432031250000001
sg4
F1.1878906250000001
sg5
F1.6621455078125
sg6
F1.9359472656250001
sg7
F-1.2571582031249999
sg8
F-0.0085898437499999994
sg9
F0.27120214843750001
sa(dp22
g3
F1.6429970703125001
sg4
F1.1386093749999999
sg5
F1.2961464843749999
sg6
F1.8889169921875
sg7
F-1.5091455078125
sg8
F-0.23454492187500001
sg9
F0.23737695312500001
sa(dp23
g3
F1.9234873046875001
sg4
F0.84056054687500004
sg5
F1.4219892578125
sg6
F2.0503818359374999
sg7
F-1.250525390625
sg8
F-0.22058203125
sg9
F-0.16645410156250001
sa(dp24
g3
F2.2114658203125002
sg4
F1.1192304687500001
sg5
F1.6065771484375
sg6
F2.02805859375
sg7
F-1.1937236328125
sg8
F-0.1925390625
sg9
F0.20644628906250001
sa(dp25
g3
F2.5716679687499999
sg4
F1.3414140624999999
sg5
F1.3449755859375001
sg6
F2.0627626953124998
sg7
F-1.5291416015624999
sg8
F-0.23906640625
sg9
F0.232328125
sa(dp26
g3
F3.0717607421875002
sg4
F1.1596542968750001
sg5
F1.0204462890624999
sg6
F1.9886171875
sg7
F-1.3652138671875
sg8
F-0.0515224609375
sg9
F0.087362304687500003
sa(dp27
g3
F3.2495576171875
sg4
F1.2105878906250001
sg5
F1.2272148437499999
sg6
F1.891064453125
sg7
F-1.282234375
sg8
F-0.010957031250000001
sg9
F0.15612402343750001
sa(dp28
g3
F2.9769169921874998
sg4
F1.180259765625
sg5
F1.5827177734375
sg6
F1.8699228515624999
sg7
F-1.2441914062499999
sg8
F-0.036118164062499999
sg9
F0.28769921874999999
sa(dp29
g3
F2.9912353515625001
sg4
F1.4458642578125001
sg5
F1.1005458984375001
sg6
F1.9096171875000001
sg7
F-1.504111328125
sg8
F-0.1705615234375
sg9
F0.29852441406250002
sa(dp30
g3
F3.3088701171874999
sg4
F1.4376005859375001
sg5
F0.87654101562499998
sg6
F2.0215888671875
sg7
F-1.4184873046875
sg8
F0.054170898437499997
sg9
F0.43649902343750002
sa(dp31
g3
F3.3646455078124999
sg4
F1.3758867187499999
sg5
F1.42218359375
sg6
F2.0217324218749999
sg7
F-1.29117578125
sg8
F0.076463867187500006
sg9
F0.50497167968750001
sa(dp32
g3
F3.3654843749999999
sg4
F1.3077685546875
sg5
F1.7517353515625
sg6
F1.938681640625
sg7
F-1.2769013671875
sg8
F0.1214541015625
sg9
F0.54776855468749996
sa(dp33
g3
F3.3648515625000002
sg4
F1.5228906250000001
sg5
F1.3997958984375001
sg6
F1.855693359375
sg7
F-1.53387890625
sg8
F-0.158650390625
sg9
F0.53251269531250001
sa(dp34
g3
F4.2338232421875004
sg4
F2.0797529296874999
sg5
F1.317888671875
sg6
F2.1478984374999999
sg7
F-1.3485107421875
sg8
F0.054789062499999999
sg9
F0.91289453124999997
sa(dp35
g3
F4.3814208984374998
sg4
F1.429970703125
sg5
F1.8038818359375
sg6
F2.2084277343749998
sg7
F-1.223716796875
sg8
F0.091456054687499996
sg9
F0.96238085937499995
sa(dp36
g3
F4.2951494140625002
sg4
F1.355861328125
sg5
F1.7025185546874999
sg6
F1.9732226562499999
sg7
F-1.2783447265625001
sg8
F0.082728515624999999
sg9
F0.65861425781250005
sa(dp37
g3
F3.9734482421875001
sg4
F1.7084462890625001
sg5
F1.4953232421875
sg6
F1.7950283203124999
sg7
F-1.4963417968749999
sg8
F-0.16009082031249999
sg9
F0.65562988281250001
sa(dp38
g3
F2.1081132812500001
sg4
F1.853384765625
sg5
F2.0701835937499999
sg6
F1.9861718749999999
sg7
F-1.2025214843750001
sg8
F0.083236328124999995
sg9
F0.89588281250000001
sa(dp39
g3
F2.2089736328125
sg4
F1.3614267578125001
sg5
F1.7117753906249999
sg6
F1.86071875
sg7
F-1.2756113281250001
sg8
F0.082625000000000004
sg9
F0.82535156249999997
sa(dp40
g3
F1.965990234375
sg4
F1.3379023437499999
sg5
F1.7200126953124999
sg6
F1.913650390625
sg7
F-1.3055771484375001
sg8
F0.034451171874999999
sg9
F0.64469531250000001
sa(dp41
g3
F2.1543994140625
sg4
F1.6069794921875
sg5
F1.623658203125
sg6
F1.7704482421875001
sg7
F-1.5229521484374999
sg8
F-0.094358398437500005
sg9
F0.66078124999999999
sa(dp42
g3
F2.3146240234375002
sg4
F1.72374609375
sg5
F1.9491308593750001
sg6
F1.5623505859375
sg7
F-1.3172451171874999
sg8
F0.1140576171875
sg9
F0.64387207031250004
sa(dp43
g3
F2.3152568359374999
sg4
F1.356275390625
sg5
F1.6948749999999999
sg6
F1.5820126953125
sg7
F-1.3715478515624999
sg8
F0.1482685546875
sg9
F0.65201562499999999
sa(dp44
g3
F2.1998457031249998
sg4
F1.3672109374999999
sg5
F1.6580400390625001
sg6
F1.6059882812499999
sg7
F-1.3817802734375
sg8
F0.1379970703125
sg9
F0.4884736328125
sa(dp45
g3
F2.5627333984375
sg4
F1.7382060546875
sg5
F1.806154296875
sg6
F1.314630859375
sg7
F-1.4540400390624999
sg8
F0.0024013671875000001
sg9
F0.46506835937500002
sa(dp46
g3
F2.5625273437499998
sg4
F1.7150566406250001
sg5
F2.0739013671875002
sg6
F1.0432060546874999
sg7
F-1.44166015625
sg8
F0.18761816406250001
sg9
F0.36689355468750001
sa(dp47
g3
F2.4288085937499999
sg4
F1.4743583984374999
sg5
F1.8742080078125001
sg6
F1.1872021484374999
sg7
F-1.5642246093750001
sg8
F0.26313378906250001
sg9
F0.33214355468750001
sa(dp48
g3
F2.9455693359374999
sg4
F1.4561923828125001
sg5
F1.7958515625
sg6
F1.3729765625000001
sg7
F-1.5351787109374999
sg8
F0.236416015625
sg9
F0.31131738281249999
sa(dp49
g3
F3.0339833984375
sg4
F1.5476796875000001
sg5
F1.9249736328125
sg6
F1.2260390624999999
sg7
F-1.5675273437499999
sg8
F0.071124999999999994
sg9
F0.33503125
sa(dp50
g3
F3.3851738281250001
sg4
F1.4000302734375001
sg5
F2.1762988281250002
sg6
F0.92074023437499997
sg7
F-1.5778867187500001
sg8
F0.26611132812499999
sg9
F0.26244140625000001
sa(dp51
g3
F3.293119140625
sg4
F1.4687939453125001
sg5
F1.8940263671874999
sg6
F1.0371962890624999
sg7
F-1.6379638671875001
sg8
F0.27844140625000002
sg9
F0.28151171874999997
sa(dp52
g3
F3.0030615234375002
sg4
F1.5332197265625001
sg5
F1.8954599609375
sg6
F1.40037109375
sg7
F-1.6386865234375001
sg8
F0.32869238281250002
sg9
F0.34575292968749999
sa(dp53
g3
F3.7758720703124999
sg4
F1.1681103515625
sg5
F2.3247871093749999
sg6
F1.1052421875
sg7
F-1.7750029296875001
sg8
F0.27823535156250001
sg9
F0.1210712890625
sa(dp54
g3
F3.8882353515624999
sg4
F1.2425683593750001
sg5
F2.2359082031250002
sg6
F0.95368457031249998
sg7
F-1.7540322265624999
sg8
F0.29909374999999999
sg9
F0.034878906250000001
sa(dp55
g3
F3.7847675781249999
sg4
F1.420880859375
sg5
F1.9410742187500001
sg6
F1.1877792968750001
sg7
F-1.611814453125
sg8
F0.3037177734375
sg9
F0.15231054687500001
sa(dp56
g3
F3.6634560546874999
sg4
F1.4894384765624999
sg5
F1.897732421875
sg6
F1.5204462890624999
sg7
F-1.5532978515625
sg8
F0.26416308593749999
sg9
F0.308943359375
sa(dp57
g3
F3.6634560546874999
sg4
F1.4745654296874999
sg5
F1.6640048828125
sg6
F1.4762578125000001
sg7
F-1.7367978515625
sg8
F-0.049264648437500003
sg9
F0.21263378906249999
sa(dp58
g3
F3.829890625
sg4
F1.1860439453125
sg5
F2.0071523437500001
sg6
F0.60660839843750003
sg7
F-1.6894072265625
sg8
F0.19039648437500001
sg9
F-0.30744531250000001
sa(dp59
g3
F3.5752226562499998
sg4
F1.301158203125
sg5
F1.9443789062500001
sg6
F1.1212949218749999
sg7
F-1.5576103515624999
sg8
F0.2663173828125
sg9
F-0.062342773437499999
sa(dp60
g3
F3.6762900390625002
sg4
F1.3897011718750001
sg5
F1.824087890625
sg6
F1.4448291015625001
sg7
F-1.5193603515625
sg8
F0.20538867187500001
sg9
F0.101068359375
sa(dp61
g3
F2.4622480468750001
sg4
F1.3094208984375
sg5
F1.1595615234375001
sg6
F1.5188671874999999
sg7
F-1.6113808593750001
sg8
F-0.26371386718750001
sg9
F0.405876953125
sa.