(lp1
(dp2
S'right_j6'
p3
F1.75678125
sS'right_j5'
p4
F1.3767128906249999
sS'right_j4'
p5
F1.3694160156249999
sS'right_j3'
p6
F1.534224609375
sS'right_j2'
p7
F-1.4196425781249999
sS'right_j1'
p8
F-0.17487792968749999
sS'right_j0'
p9
F0.29202832031249998
sa(dp10
g3
F1.6170976562499999
sg4
F1.2910488281250001
sg5
F2.1549824218750002
sg6
F0.122474609375
sg7
F-2.1133808593749999
sg8
F0.07019921875
sg9
F-0.76925488281249998
sa(dp11
g3
F1.6208291015625
sg4
F1.4411123046875001
sg5
F2.1133964843749999
sg6
F0.16063476562500001
sg7
F-2.1136699218750001
sg8
F0.068758789062500006
sg9
F-0.73609863281249999
sa(dp12
g3
F1.3345029296875
sg4
F1.5648251953125001
sg5
F2.1293281249999998
sg6
F0.9652802734375
sg7
F-1.9648466796874999
sg8
F0.35561621093750001
sg9
F-0.35403125000000002
sa(dp13
g3
F1.1630458984375001
sg4
F1.8080937500000001
sg5
F2.0945849609375
sg6
F1.4657822265625
sg7
F-1.8957089843749999
sg8
F0.49877539062499998
sg9
F-0.085941406250000005
sa(dp14
g3
F1.8260097656250001
sg4
F1.7026621093750001
sg5
F1.9672958984375
sg6
F0.86301757812500002
sg7
F-2.0206298828125
sg8
F0.2265556640625
sg9
F-0.60931542968749997
sa(dp15
g3
F1.8357568359375001
sg4
F1.7820390625
sg5
F2.0325742187500002
sg6
F1.1829072265625
sg7
F-1.9523759765624999
sg8
F0.41614550781249998
sg9
F-0.35082812499999999
sa(dp16
g3
F1.6436162109375001
sg4
F1.7975449218749999
sg5
F2.0542646484375
sg6
F1.4525810546875
sg7
F-1.9381738281250001
sg8
F0.49415039062499999
sg9
F-0.083780273437499997
sa(dp17
g3
F1.6432031250000001
sg4
F1.7985781249999999
sg5
F2.0610937499999999
sg6
F1.4561718749999999
sg7
F-1.943912109375
sg8
F0.47893261718750002
sg9
F-0.083677734375000007
sa(dp18
g3
F1.6429970703125001
sg4
F1.8469814453125
sg5
F1.7373134765625
sg6
F1.4541601562499999
sg7
F-1.95265625
sg8
F0.1808388671875
sg9
F-0.15768847656250001
sa(dp19
g3
F1.6697353515625
sg4
F1.7303564453125
sg5
F1.8333710937500001
sg6
F1.1261679687499999
sg7
F-1.8738994140625
sg8
F0.22871093749999999
sg9
F-0.53927929687499998
sa(dp20
g3
F1.6695156250000001
sg4
F1.7214736328125
sg5
F1.8356298828124999
sg6
F1.1576865234375
sg7
F-1.8737548828124999
sg8
F0.24391503906250001
sg9
F-0.52763769531250004
sa(dp21
g3
F1.6695156250000001
sg4
F1.7214736328125
sg5
F1.9041357421875
sg6
F1.4137080078124999
sg7
F-1.8121796875
sg8
F0.37370214843749999
sg9
F-0.30878320312500002
sa(dp22
g3
F1.6693095703125
sg4
F1.728083984375
sg5
F1.9728740234375
sg6
F1.5424091796874999
sg7
F-1.7560449218750001
sg8
F0.45129589843750001
sg9
F-0.16428710937499999
sa(dp23
g3
F1.6560498046875001
sg4
F1.7861708984375
sg5
F1.9452050781250001
sg6
F1.72533203125
sg7
F-1.7089335937500001
sg8
F0.37308496093749999
sg9
F0.0135380859375
sa(dp24
g3
F1.5402646484375
sg4
F1.719408203125
sg5
F1.626951171875
sg6
F1.668880859375
sg7
F-1.7869140625
sg8
F0.078824218749999994
sg9
F-0.1837685546875
sa(dp25
g3
F1.4118906250000001
sg4
F1.5714355468750001
sg5
F1.81378515625
sg6
F1.5058095703125001
sg7
F-1.6868173828124999
sg8
F0.22552734375
sg9
F-0.36711328124999998
sa(dp26
g3
F1.4127177734375
sg4
F1.6125439453124999
sg5
F1.9937246093750001
sg6
F1.7658554687500001
sg7
F-1.600896484375
sg8
F0.41871191406250002
sg9
F-0.109140625
sa(dp27
g3
F1.5429501953125
sg4
F1.6668994140625
sg5
F1.969568359375
sg6
F1.9012792968750001
sg7
F-1.557177734375
sg8
F0.40586816406249998
sg9
F0.19479199218750001
sa(dp28
g3
F1.53964453125
sg4
F1.6292763671874999
sg5
F1.6267441406250001
sg6
F1.8568388671875
sg7
F-1.6648359374999999
sg8
F0.073999999999999996
sg9
F0.019725585937500002
sa(dp29
g3
F1.289185546875
sg4
F1.4863398437499999
sg5
F1.7329882812499999
sg6
F1.604697265625
sg7
F-1.5589101562500001
sg8
F0.145908203125
sg9
F-0.34907910156249999
sa(dp30
g3
F1.3183642578125001
sg4
F1.5747412109375001
sg5
F1.9222880859375
sg6
F1.9012792968750001
sg7
F-1.4805146484375
sg8
F0.34872753906249998
sg9
F-0.0237783203125
sa(dp31
g3
F1.4582675781250001
sg4
F1.6071865234375
sg5
F1.8698701171875001
sg6
F1.990205078125
sg7
F-1.4756240234375
sg8
F0.31975292968750002
sg9
F0.246041015625
sa(dp32
g3
F1.4586806640625001
sg4
F1.6590498046875
sg5
F1.5673017578124999
sg6
F1.98876171875
sg7
F-1.6721630859375001
sg8
F0.056332031249999998
sg9
F0.12437109374999999
sa(dp33
g3
F1.4570273437500001
sg4
F1.6305166015624999
sg5
F1.5954736328125001
sg6
F1.9873261718749999
sg7
F-1.6531962890625
sg8
F0.0485244140625
sg9
F0.080756835937499993
sa(dp34
g3
F1.1835224609374999
sg4
F1.4669345703125001
sg5
F1.6592666015624999
sg6
F1.7355371093750001
sg7
F-1.57759765625
sg8
F0.10029394531249999
sg9
F-0.39637792968750002
sa(dp35
g3
F1.10290625
sg4
F1.493556640625
sg5
F1.7540078125
sg6
F1.802923828125
sg7
F-1.5380478515625
sg8
F0.1620390625
sg9
F-0.36422558593749998
sa(dp36
g3
F1.2927099609374999
sg4
F1.5286748046875001
sg5
F1.88781640625
sg6
F1.989916015625
sg7
F-1.4078398437499999
sg8
F0.30988574218749998
sg9
F-0.068524414062499997
sa(dp37
g3
F1.8994208984375001
sg4
F1.5670976562500001
sg5
F1.8907080078125
sg6
F2.024900390625
sg7
F-1.4063964843750001
sg8
F0.32129003906249998
sg9
F0.21727734374999999
sa(dp38
g3
F1.8973554687500001
sg4
F1.5776328125000001
sg5
F1.5294599609374999
sg6
F2.0210107421874999
sg7
F-1.6099462890625
sg8
F0.027877929687500001
sg9
F0.099833007812499999
sa(dp39
g3
F1.5000859375
sg4
F1.4815888671874999
sg5
F1.4979960937500001
sg6
F1.9612763671875
sg7
F-1.5649472656250001
sg8
F0.00034374999999999998
sg9
F-0.48529785156249999
sa(dp40
g3
F1.5011181640625
sg4
F1.4652822265625001
sg5
F1.6397197265625001
sg6
F2.0214443359374998
sg7
F-1.5074130859374999
sg8
F0.1213515625
sg9
F-0.43429394531249998
sa(dp41
g3
F1.705576171875
sg4
F1.5414824218750001
sg5
F1.8372832031249999
sg6
F2.075287109375
sg7
F-1.4032197265624999
sg8
F0.2721767578125
sg9
F-0.12532324218749999
sa(dp42
g3
F2.1527333984374999
sg4
F1.5722617187500001
sg5
F1.8228486328125
sg6
F1.98876171875
sg7
F-1.4956201171875001
sg8
F0.2649794921875
sg9
F0.19396875
sa(dp43
g3
F2.1531474609374999
sg4
F1.6962460937499999
sg5
F1.30187890625
sg6
F2.0623291015624998
sg7
F-1.82280859375
sg8
F-0.019884765624999998
sg9
F-0.1137783203125
sa(dp44
g3
F2.4904843749999999
sg4
F1.3653515624999999
sg5
F1.47108984375
sg6
F2.2550058593750002
sg7
F-1.5065566406249999
sg8
F0.1561796875
sg9
F-0.025849609374999999
sa(dp45
g3
F2.7825937500000002
sg4
F1.510703125
sg5
F1.7430849609375001
sg6
F2.1311865234375
sg7
F-1.3989072265625
sg8
F0.28399218749999999
sg9
F0.095298828124999999
sa(dp46
g3
F2.9189980468750001
sg4
F1.5648251953125001
sg5
F1.85934765625
sg6
F1.9706328125000001
sg7
F-1.4156093750000001
sg8
F0.30937207031250002
sg9
F0.18376171875
sa(dp47
g3
F2.6027968750000001
sg4
F1.5813515625000001
sg5
F1.1163105468750001
sg6
F2.1775849609375002
sg7
F-1.7816083984375
sg8
F-0.056043945312500003
sg9
F0.080344726562499996
sa(dp48
g3
F2.8868242187500002
sg4
F1.3847431640625001
sg5
F1.2924541015625
sg6
F2.2454863281250002
sg7
F-1.5028115234374999
sg8
F0.107072265625
sg9
F0.27130468749999997
sa(dp49
g3
F2.9040605468749998
sg4
F1.4466904296875001
sg5
F1.6267441406250001
sg6
F2.1728300781250001
sg7
F-1.343900390625
sg8
F0.17128125
sg9
F0.31121386718749999
sa(dp50
g3
F3.0460166015625001
sg4
F1.4976884765625
sg5
F1.7678095703125001
sg6
F2.0182675781250001
sg7
F-1.4020742187499999
sg8
F0.208263671875
sg9
F0.3132724609375
sa(dp51
g3
F3.0449833984375001
sg4
F1.7086533203125001
sg5
F1.4347197265625
sg6
F2.1566874999999999
sg7
F-1.6828017578125001
sg8
F0.096904296875000004
sg9
F0.29007226562499999
sa(dp52
g3
F2.8830927734374998
sg4
F1.5511914062500001
sg5
F1.0653115234374999
sg6
F2.2290546875000001
sg7
F-1.6283359374999999
sg8
F0.114263671875
sg9
F0.30729687500000002
sa(dp53
g3
F2.883712890625
sg4
F1.5402431640625001
sg5
F1.2534755859375
sg6
F2.2353896484375002
sg7
F-1.565515625
sg8
F0.1918310546875
sg9
F0.35947167968749999
sa(dp54
g3
F3.0974921874999999
sg4
F1.6389990234375
sg5
F1.5325458984375
sg6
F2.0908427734375001
sg7
F-1.4839619140625
sg8
F0.32334765625
sg9
F0.39195214843749998
sa(dp55
g3
F3.3113486328124999
sg4
F1.6573837890625001
sg5
F1.7618310546875
sg6
F1.904013671875
sg7
F-1.5068447265625
sg8
F0.32149511718750001
sg9
F0.3631826171875
sa(dp56
g3
F3.2051689453124999
sg4
F1.881298828125
sg5
F1.6325156249999999
sg6
F2.0290693359374998
sg7
F-1.790216796875
sg8
F0.20919042968750001
sg9
F0.36401269531250002
sa(dp57
g3
F3.0213300781250001
sg4
F1.7225068359375
sg5
F1.1085380859375
sg6
F2.2802451171875
sg7
F-1.6751767578125001
sg8
F0.25306152343749999
sg9
F0.58839843749999998
sa(dp58
g3
F3.0229960937499998
sg4
F1.6939736328124999
sg5
F1.23951953125
sg6
F2.245775390625
sg7
F-1.62661328125
sg8
F0.27823535156250001
sg9
F0.60582226562499997
sa(dp59
g3
F3.2371113281250001
sg4
F1.7309765625
sg5
F1.524734375
sg6
F2.0630507812499999
sg7
F-1.5374794921874999
sg8
F0.37010742187500001
sg9
F0.55808496093750004
sa(dp60
g3
F3.4566875000000001
sg4
F1.7005839843749999
sg5
F1.9350830078125001
sg6
F2.0313701171875
sg7
F-1.5298544921874999
sg8
F0.4152197265625
sg9
F0.56550781250000004
sa(dp61
g3
F3.5043671875000002
sg4
F2.0433173828125
sg5
F1.3357441406249999
sg6
F2.2051162109375002
sg7
F-1.8744677734374999
sg8
F0.12885058593750001
sg9
F0.48218359374999997
sa(dp62
g3
F3.0840000000000001
sg4
F2.038966796875
sg5
F1.172279296875
sg6
F2.1976259765625001
sg7
F-1.7168378906249999
sg8
F0.36887207031250002
sg9
F0.72111230468749998
sa(dp63
g3
F3.3049189453125001
sg4
F1.9359248046874999
sg5
F1.74741015625
sg6
F2.1866630859375
sg7
F-1.4698671875
sg8
F0.4321806640625
sg9
F0.77039843750000003
sa(dp64
g3
F3.5909609374999998
sg4
F1.9288876953125
sg5
F1.7583320312499999
sg6
F2.02043359375
sg7
F-1.5984414062500001
sg8
F0.38284863281249998
sg9
F0.59365332031249995
sa(dp65
g3
F3.5918007812499999
sg4
F2.0464160156250002
sg5
F1.417677734375
sg6
F2.0649189453124999
sg7
F-1.7991230468749999
sg8
F0.252546875
sg9
F0.61252441406250002
sa(dp66
g3
F3.8178837890624999
sg4
F2.3125107421875
sg5
F1.1853837890625001
sg6
F2.205548828125
sg7
F-1.7784501953125
sg8
F0.32396582031249999
sg9
F0.88175878906250005
sa(dp67
g3
F3.9227724609374999
sg4
F2.3098251953125
sg5
F1.4047275390625
sg6
F2.2819775390624999
sg7
F-1.6243115234375001
sg8
F0.39816210937500002
sg9
F0.92743066406249997
sa(dp68
g3
F4.0598740234374997
sg4
F2.0369013671874998
sg5
F1.6790332031249999
sg6
F2.1167763671875002
sg7
F-1.5393476562499999
sg8
F0.45150097656249999
sg9
F0.73719140625000001
sa(dp69
g3
F4.0590478515625001
sg4
F1.8606279296874999
sg5
F2.0340195312499998
sg6
F2.0819189453125002
sg7
F-1.5499951171874999
sg8
F0.51429492187500003
sg9
F0.57272363281250005
sa(dp70
g3
F4.0604931640624997
sg4
F1.9524765625
sg5
F1.70333203125
sg6
F2.0598749999999999
sg7
F-1.8370117187499999
sg8
F0.1966611328125
sg9
F0.47599609375000002
sa(dp71
g3
F4.3556249999999999
sg4
F2.3309482421875001
sg5
F1.6263310546875001
sg6
F2.0126552734374998
sg7
F-1.9307109375
sg8
F0.21782128906250001
sg9
F0.51342968749999995
sa(dp72
g3
F3.566107421875
sg4
F2.3823330078125
sg5
F1.6780009765624999
sg6
F2.0223017578125
sg7
F-1.9139277343750001
sg8
F0.33495703124999998
sg9
F0.53426171874999995
sa(dp73
g3
F2.9958056640624999
sg4
F2.3821269531249998
sg5
F1.626951171875
sg6
F2.0201445312500002
sg7
F-1.914072265625
sg8
F0.33526562500000001
sg9
F0.51611132812500005
sa(dp74
g3
F2.6798232421875001
sg4
F2.3866845703125001
sg5
F1.6316894531249999
sg6
F2.0282031250000001
sg7
F-1.9261181640625
sg8
F0.33506054687499998
sg9
F0.51786132812499996
sa(dp75
g3
F2.1338447265624998
sg4
F2.3889697265624998
sg5
F1.740412109375
sg6
F2.0208662109375002
sg7
F-1.9561025390625
sg8
F0.39178906250000001
sg9
F0.52240136718749997
sa(dp76
g3
F2.1373828124999998
sg4
F2.4787001953124999
sg5
F1.8597607421875
sg6
F2.0233115234375001
sg7
F-1.9573935546875001
sg8
F0.46218457031249999
sg9
F0.55632910156250004
sa(dp77
g3
F2.1658124999999999
sg4
F2.3742509765625002
sg5
F2.0542646484375
sg6
F2.0289248046875001
sg7
F-1.9452031249999999
sg8
F0.63653124999999999
sg9
F0.68129882812499998
sa(dp78
g3
F2.0481552734375001
sg4
F1.8788193359375001
sg5
F2.0765869140625002
sg6
F1.9840146484375001
sg7
F-1.6225888671875
sg8
F0.59756738281249999
sg9
F0.68326074218749999
sa(dp79
g3
F1.9440029296875001
sg4
F1.4910908203125
sg5
F1.77440625
sg6
F1.966599609375
sg7
F-1.4022187500000001
sg8
F0.24648828125
sg9
F0.64768652343749999
sa(dp80
g3
F2.0371552734375
sg4
F1.846361328125
sg5
F1.6397197265625001
sg6
F1.8874736328124999
sg7
F-1.7997001953125
sg8
F0.19542578125000001
sg9
F0.63345898437500003
sa(dp81
g3
F2.4113662109375
sg4
F1.777494140625
sg5
F1.7911132812499999
sg6
F1.5627744140625
sg7
F-1.6701503906249999
sg8
F0.22984277343750001
sg9
F0.74090917968750003
sa(dp82
g3
F2.2293212890624998
sg4
F1.5412753906250001
sg5
F1.7876015624999999
sg6
F1.6740419921875
sg7
F-1.4707333984375
sg8
F0.246384765625
sg9
F0.6490244140625
sa(dp83
g3
F1.891958984375
sg4
F1.520412109375
sg5
F1.8733818359375001
sg6
F1.7898486328125001
sg7
F-1.450728515625
sg8
F0.24473828124999999
sg9
F0.46125488281249999
sa(dp84
g3
F1.99918359375
sg4
F1.6857109374999999
sg5
F1.7270234375
sg6
F1.7243212890624999
sg7
F-1.6041982421875001
sg8
F0.084882812500000002
sg9
F0.48558593750000001
sa(dp85
g3
F2.4977402343750001
sg4
F1.7843115234375
sg5
F1.7706884765624999
sg6
F1.3235185546874999
sg7
F-1.6947216796875
sg8
F0.095875000000000002
sg9
F0.57715527343749995
sa(dp86
g3
F2.6233505859375001
sg4
F1.6888095703124999
sg5
F1.8166640624999999
sg6
F1.3061669921875001
sg7
F-1.686392578125
sg8
F0.21391796874999999
sg9
F0.58395996093750002
sa(dp87
g3
F2.3692373046875002
sg4
F1.5677177734375001
sg5
F1.8057412109375
sg6
F1.4666396484374999
sg7
F-1.5622128906249999
sg8
F0.2735078125
sg9
F0.49919628906250002
sa(dp88
g3
F2.1512880859374999
sg4
F1.5623466796875001
sg5
F1.8296523437500001
sg6
F1.4792626953125001
sg7
F-1.60391015625
sg8
F0.22726953124999999
sg9
F0.3509169921875
sa(dp89
g3
F2.4788515625
sg4
F1.7305634765625
sg5
F1.778525390625
sg6
F1.3903281249999999
sg7
F-1.6796347656249999
sg8
F0.087757812500000004
sg9
F0.3371982421875
sa(dp90
g3
F3.2288095703124999
sg4
F1.7648808593750001
sg5
F2.0534374999999998
sg6
F1.0218662109375001
sg7
F-1.7290468750000001
sg8
F0.11446874999999999
sg9
F0.3540107421875
sa(dp91
g3
F2.5643994140625002
sg4
F1.7781142578125
sg5
F2.0098378906250001
sg6
F1.0188515625000001
sg7
F-1.7202851562499999
sg8
F0.2326142578125
sg9
F0.32863769531249998
sa(dp92
g3
F2.4865458984375
sg4
F1.6941796874999999
sg5
F1.96853515625
sg6
F1.154392578125
sg7
F-1.7818876953125
sg8
F0.35191796874999998
sg9
F0.28161523437500002
sa(dp93
g3
F2.584734375
sg4
F1.6900488281249999
sg5
F1.9086679687500001
sg6
F1.2865312499999999
sg7
F-1.7785947265625
sg8
F0.37164453125000002
sg9
F0.22686132812500001
sa(dp94
g3
F2.58452734375
sg4
F1.703076171875
sg5
F1.8981455078125
sg6
F1.3514824218749999
sg7
F-1.7787382812500001
sg8
F0.34081640624999998
sg9
F0.19974511718749999
sa(dp95
g3
F3.3654843749999999
sg4
F1.67268359375
sg5
F2.4772265624999998
sg6
F0.8545625
sg7
F-1.873177734375
sg8
F0.30176953125
sg9
F0.12901464843749999
sa(dp96
g3
F3.4892363281250001
sg4
F1.5611074218750001
sg5
F2.2551708984375001
sg6
F0.73208789062500002
sg7
F-1.8793583984375
sg8
F0.29704199218749999
sg9
F0.10849023437499999
sa(dp97
g3
F3.2601308593749998
sg4
F1.6367265625
sg5
F2.1098847656249999
sg6
F1.14980859375
sg7
F-1.7355078125000001
sg8
F0.3378388671875
sg9
F0.243873046875
sa(dp98
g3
F2.9715068359374999
sg4
F1.7005839843749999
sg5
F2.0230585937500001
sg6
F1.4794072265625
sg7
F-1.7037626953125
sg8
F0.34461816406250001
sg9
F0.27872753906249997
sa(dp99
g3
F4.0276220703124999
sg4
F1.4524746093750001
sg5
F2.2065097656249999
sg6
F0.53798535156250005
sg7
F-1.912501953125
sg8
F0.20015332031249999
sg9
F-0.1754208984375
sa(dp100
g3
F3.8238876953125001
sg4
F1.603880859375
sg5
F2.2462626953124998
sg6
F1.2154365234375
sg7
F-1.8159150390625001
sg8
F0.42601171874999999
sg9
F0.1247822265625
sa(dp101
g3
F3.6383955078125001
sg4
F1.8457412109375
sg5
F2.0418701171875
sg6
F1.5558984375
sg7
F-1.8624218749999999
sg8
F0.42128515625000001
sg9
F0.20366210937500001
sa(dp102
g3
F3.6381894531249999
sg4
F1.954955078125
sg5
F1.897525390625
sg6
F1.3817285156250001
sg7
F-1.94133203125
sg8
F0.1960439453125
sg9
F0.043536132812500003
sa(dp103
g3
F3.8375468750000001
sg4
F1.5385898437500001
sg5
F2.2336357421874999
sg6
F0.62480859374999997
sg7
F-2.0388476562500002
sg8
F0.19039648437500001
sg9
F-0.29425390624999997
sa(dp104
g3
F3.9997089843750002
sg4
F1.5065712890625
sg5
F2.1570478515625
sg6
F0.48166992187500002
sg7
F-2.0351210937499999
sg8
F0.1692294921875
sg9
F-0.3503134765625
sa(dp105
g3
F3.77048828125
sg4
F1.6431298828125001
sg5
F2.0952050781249998
sg6
F1.1088339843749999
sg7
F-1.9233935546875001
sg8
F0.39836816406249997
sg9
F-0.092540039062499996
sa(dp106
g3
F3.5756357421875
sg4
F1.7410986328125
sg5
F2.0059130859374998
sg6
F1.5713916015625
sg7
F-1.794529296875
sg8
F0.45817089843749997
sg9
F0.10890234375000001
sa(dp107
g3
F3.5785410156249999
sg4
F1.7437841796875
sg5
F1.7902871093749999
sg6
F1.08862109375
sg7
F-1.9033066406250001
sg8
F0.087243164062500003
sg9
F-0.1742880859375
sa(dp108
g3
F3.8998300781249999
sg4
F1.3830908203125001
sg5
F2.2201826171875001
sg6
F0.23394042968750001
sg7
F-2.08227734375
sg8
F0.129365234375
sg9
F-0.59860644531249996
sa(dp109
g3
F3.6992841796875
sg4
F1.6148164062499999
sg5
F2.1136025390625002
sg6
F0.89180175781250004
sg7
F-2.0083037109375002
sg8
F0.36712304687500003
sg9
F-0.3587646484375
sa(dp110
g3
F3.9525576171874999
sg4
F1.7516464843749999
sg5
F2.0336064453125
sg6
F1.376134765625
sg7
F-1.8460537109374999
sg8
F0.45222167968749999
sg9
F-0.11037597656250001
sa(dp111
g3
F3.9527646484374999
sg4
F1.8143037109375
sg5
F2.0181005859374999
sg6
F1.575560546875
sg7
F-1.8427509765625001
sg8
F0.49003417968750002
sg9
F-0.0075957031249999996
sa(dp112
g3
F3.9529707031250001
sg4
F1.8833642578125001
sg5
F1.3751611328125
sg6
F1.3808710937499999
sg7
F-1.83730078125
sg8
F-0.042691406250000001
sg9
F0.1026181640625
sa.